(dp0
(S'Far'
p1
S'Med'
p2
S'sword'
p3
S'Witch'
p4
tp5
(dp6
S'strafe 1'
p7
F-3.0
sS'strafe -1'
p8
F0.0
sS'move -1'
p9
F-8.099999999999998
sS'attack 1'
p10
F0.0
sS'move 1'
p11
F-3.0
sS'switch'
p12
F-5.3999999999999995
ss(S'Close'
p13
S'Hi'
p14
g3
S'Blaze'
p15
tp16
(dp17
g7
I0
sg8
I0
sg9
I0
sg10
I0
sg11
I0
sg12
I0
ss(g1
g2
g3
S'Creeper'
p18
tp19
(dp20
g7
I0
sg8
I0
sg9
I0
sg10
I0
sg11
I0
sg12
I0
ss(S'Melee'
p21
S'Low'
p22
S'bow'
p23
S'Wolf'
p24
tp25
(dp26
g7
I0
sg8
I0
sg9
I0
sg11
I0
sg12
I0
sS'use 0'
p27
I0
sS'use 1'
p28
I0
ss(g1
g22
g3
S'Zombie'
p29
tp30
(dp31
g7
I0
sg8
I0
sg9
I0
sg10
I0
sg11
I0
sg12
I0
ss(g1
g2
g3
g15
tp32
(dp33
g7
F0.0
sg8
F-50.0
sg9
F-15.0
sg10
F0.0
sg11
F0.8999999999999999
sg12
F0.0
ss(g13
g14
g3
S'Cave Spider'
p34
tp35
(dp36
g7
F0.0
sg8
F0.0
sg9
F-1.8000000000000007
sg10
F-20.0
sg11
F-20.0
sg12
F-1.7999999999999998
ss(g21
g22
g23
S'Silverfish'
p37
tp38
(dp39
g7
I0
sg8
I0
sg9
I0
sg11
I0
sg12
I0
sg27
I0
sg28
I0
ss(g13
g22
g23
g24
tp40
(dp41
g7
I0
sg8
I0
sg9
I0
sg11
I0
sg12
I0
sg27
I0
sg28
I0
ss(g21
g22
g3
S'Zombie Pigman'
p42
tp43
(dp44
g7
I0
sg8
F0.0
sg9
F0.0
sg10
F0.0
sg11
F0.0
sg12
F0.0
ss(g1
g2
g3
g34
tp45
(dp46
g7
F-10.0
sg8
F-0.8999999999999999
sg9
F0.0
sg10
F0.0
sg11
F-10.0
sg12
F0.0
ss(g1
g2
g23
S'Ghast'
p47
tp48
(dp49
g7
F0.0
sg8
F-21.0
sg9
F-70.0
sg11
F0.0
sg12
F0.0
sg27
F0.0
sg28
F0.0
ss(g21
g2
g23
S'Spider'
p50
tp51
(dp52
g7
F0.0
sg8
F0.0
sg9
F0.0
sg11
F0.0
sg12
F1.3499999999999999
sg27
F-15.95
sg28
F0.0
ss(g21
g2
g23
g37
tp53
(dp54
g7
I0
sg8
I0
sg9
I0
sg11
I0
sg12
I0
sg27
I0
sg28
I0
ss(g1
g2
g3
g24
tp55
(dp56
g7
F0.0
sg8
F0.0
sg9
F0.0
sg10
F0.0
sg11
F0.0
sg12
I0
ss(g1
g14
g23
g37
tp57
(dp58
g7
F0.0
sg8
F0.0
sg9
F0.0
sg11
F0.0
sg12
F0.0
sg27
F0.0
sg28
F0.0
ss(g13
g22
g23
g34
tp59
(dp60
g7
F0.0
sg8
F0.0
sg9
F0.0
sg11
F0.0
sg12
I0
sg27
F0.0
sg28
F-6.0
ss(g13
g2
g23
g37
tp61
(dp62
g7
I0
sg8
I0
sg9
I0
sg11
I0
sg12
I0
sg27
I0
sg28
I0
ss(g21
g22
g3
g34
tp63
(dp64
g7
F2.6999999999999997
sg8
F9.0
sg9
F0.0
sg10
F0.0
sg11
F0.0
sg12
F0.0
ss(g1
g22
g3
g34
tp65
(dp66
g7
I0
sg8
F0.0
sg9
F0.0
sg10
I0
sg11
F0.0
sg12
F0.0
ss(g1
g2
g23
g37
tp67
(dp68
g7
I0
sg8
I0
sg9
I0
sg11
I0
sg12
I0
sg27
I0
sg28
I0
ss(g21
g2
g23
g18
tp69
(dp70
g7
I0
sg8
I0
sg9
I0
sg11
I0
sg12
I0
sg27
I0
sg28
I0
ss(g21
g2
g3
g18
tp71
(dp72
g7
I0
sg8
I0
sg9
I0
sg10
I0
sg11
I0
sg12
I0
ss(g13
g14
g23
g37
tp73
(dp74
g7
F0.0
sg8
F0.0
sg9
F0.0
sg11
F0.0
sg12
F-10.0
sg27
F0.0
sg28
F-10.0
ss(g21
g2
g3
g42
tp75
(dp76
g7
F0.0
sg8
F0.0
sg9
F0.0
sg10
F0.0
sg11
F0.0
sg12
F0.0
ss(g1
g22
g3
g15
tp77
(dp78
g7
F-10.0
sg8
F0.0
sg9
F0.0
sg10
F0.0
sg11
F0.0
sg12
F0.0
ss(g21
g14
g23
g47
tp79
(dp80
g7
I0
sg8
I0
sg9
I0
sg11
I0
sg12
I0
sg27
I0
sg28
I0
ss(g1
g14
g3
g4
tp81
(dp82
g7
F0.0
sg8
F0.0
sg9
F-2.6999999999999997
sg10
F0.0
sg11
F-10.0
sg12
F0.0
ss(g13
g2
g3
g37
tp83
(dp84
g7
I0
sg8
I0
sg9
I0
sg10
I0
sg11
I0
sg12
I0
ss(g21
g14
g23
g37
tp85
(dp86
g7
F0.0
sg8
F-0.8999999999999999
sg9
F0.0
sg11
F0.0
sg12
F0.0
sg27
F-3.0
sg28
F0.0
ss(g21
g2
g23
g15
tp87
(dp88
g7
I0
sg8
I0
sg9
I0
sg11
I0
sg12
I0
sg27
I0
sg28
I0
ss(g1
g2
g23
g34
tp89
(dp90
g7
F0.0
sg8
F0.0
sg9
F-3.0
sg11
F-10.0
sg12
F-10.0
sg27
F0.0
sg28
F0.0
ss(g1
g2
g3
g47
tp91
(dp92
g7
F-13.9
sg8
F0.0
sg9
F-13.9
sg10
F0.0
sg11
F0.0
sg12
F0.0
ss(g21
g22
g3
S'Endermite'
p93
tp94
(dp95
g7
I0
sg8
I0
sg9
I0
sg10
I0
sg11
I0
sg12
I0
ss(g13
g22
g3
g93
tp96
(dp97
g7
I0
sg8
I0
sg9
I0
sg10
I0
sg11
I0
sg12
I0
ss(g13
g14
g23
g34
tp98
(dp99
g7
F0.0
sg8
F-20.0
sg9
F-10.0
sg11
F0.0
sg12
F0.0
sg27
F-6.0
sg28
F-20.0
ss(g13
g14
g3
g47
tp100
(dp101
g7
I0
sg8
I0
sg9
I0
sg10
I0
sg11
I0
sg12
I0
ss(g13
g22
g3
g29
tp102
(dp103
g7
I0
sg8
I0
sg9
I0
sg10
I0
sg11
I0
sg12
I0
ss(g21
g14
g3
g47
tp104
(dp105
g7
I0
sg8
I0
sg9
I0
sg10
I0
sg11
I0
sg12
I0
ss(g21
g2
g3
S'Skeleton'
p106
tp107
(dp108
g7
F0.0
sg8
F0.0
sg9
F0.0
sg10
F0.0
sg11
F0.0
sg12
F0.0
ss(g1
g22
g23
g47
tp109
(dp110
g7
F0.0
sg8
F0.0
sg9
F0.0
sg11
F-40.0
sg12
F0.0
sg27
F0.0
sg28
F0.0
ss(g21
g2
g23
g24
tp111
(dp112
g7
I0
sg8
I0
sg9
F0.0
sg11
F0.0
sg12
F0.0
sg27
F0.0
sg28
F0.0
ss(g1
g14
g3
g47
tp113
(dp114
g7
F0.0
sg8
F0.0
sg9
F0.0
sg10
F0.0
sg11
F0.0
sg12
F0.0
ss(g1
g22
g3
g50
tp115
(dp116
g7
I0
sg8
I0
sg9
I0
sg10
I0
sg11
I0
sg12
I0
ss(g13
g2
g3
g47
tp117
(dp118
g7
I0
sg8
I0
sg9
I0
sg10
I0
sg11
I0
sg12
I0
ss(g13
g14
g3
g37
tp119
(dp120
g7
F0.0
sg8
F0.0
sg9
F0.0
sg10
F0.0
sg11
F0.0
sg12
F0.0
ss(g13
g2
g3
g24
tp121
(dp122
g7
F4.5
sg8
F18.0
sg9
F0.0
sg10
F0.0
sg11
F60.0
sg12
I0
ss(g13
g14
g23
g47
tp123
(dp124
g7
I0
sg8
I0
sg9
I0
sg11
I0
sg12
I0
sg27
I0
sg28
I0
ss(g13
g22
g3
g106
tp125
(dp126
g7
I0
sg8
I0
sg9
I0
sg10
I0
sg11
I0
sg12
I0
ss(g1
g2
g3
g37
tp127
(dp128
g7
I0
sg8
I0
sg9
I0
sg10
I0
sg11
I0
sg12
I0
ss(g21
g2
g3
g37
tp129
(dp130
g7
I0
sg8
I0
sg9
I0
sg10
I0
sg11
I0
sg12
I0
ss(g1
g22
g23
g24
tp131
(dp132
g7
I0
sg8
I0
sg9
I0
sg11
I0
sg12
I0
sg27
I0
sg28
I0
ss(g21
g2
g23
g106
tp133
(dp134
g7
F0.0
sg8
F0.0
sg9
F0.0
sg11
F0.0
sg12
F0.0
sg27
F0.0
sg28
F0.0
ss(g13
g14
g23
g93
tp135
(dp136
g7
F-20.0
sg8
F-1.7999999999999998
sg9
F0.0
sg11
F-20.0
sg12
F-20.0
sg27
F-20.0
sg28
F0.0
ss(g21
g14
g3
g24
tp137
(dp138
g7
F0.0
sg8
F-3.5999999999999996
sg9
F0.0
sg10
F0.0
sg11
F0.0
sg12
F0.0
ss(g13
g2
g3
g34
tp139
(dp140
g7
F-3.0
sg8
F0.0
sg9
F-10.0
sg10
F-6.0
sg11
F-20.0
sg12
F-1.7999999999999998
ss(g21
g2
g23
g34
tp141
(dp142
g7
F0.0
sg8
F-6.0
sg9
F-20.0
sg11
F-20.0
sg12
F-10.0
sg27
F-20.0
sg28
F-6.0
ss(g13
g14
g23
g50
tp143
(dp144
g7
F3.0
sg8
F0.0
sg9
F0.0
sg11
F0.0
sg12
F0.0
sg27
F-6.0
sg28
F0.0
ss(g21
g22
g23
g93
tp145
(dp146
g7
I0
sg8
I0
sg9
I0
sg11
I0
sg12
I0
sg27
I0
sg28
I0
ss(g1
g14
g3
g34
tp147
(dp148
g7
F0.0
sg8
F0.0
sg9
F0.0
sg10
F0.0
sg11
F0.0
sg12
F0.0
ss(g13
g2
g3
g15
tp149
(dp150
g7
I0
sg8
I0
sg9
I0
sg10
I0
sg11
I0
sg12
I0
ss(g13
g2
g23
g18
tp151
(dp152
g7
I0
sg8
I0
sg9
I0
sg11
I0
sg12
I0
sg27
I0
sg28
I0
ss(g1
g22
g23
g34
tp153
(dp154
g7
F0.0
sg8
I0
sg9
F0.0
sg11
I0
sg12
I0
sg27
F0.0
sg28
F0.0
ss(g1
g14
g3
g15
tp155
(dp156
g7
F-50.0
sg8
F0.0
sg9
F0.0
sg10
F-50.0
sg11
F-15.0
sg12
F0.0
ss(g21
g14
g3
g34
tp157
(dp158
g7
F0.0
sg8
F-10.0
sg9
F-20.0
sg10
F55.0
sg11
F0.0
sg12
F0.0
ss(g1
g14
g23
g15
tp159
(dp160
g7
F-4.5
sg8
F0.0
sg9
F0.0
sg11
F0.0
sg12
F0.0
sg27
F0.0
sg28
F0.0
ss(g13
g2
g3
g29
tp161
(dp162
g7
I0
sg8
I0
sg9
I0
sg10
I0
sg11
I0
sg12
I0
ss(g1
g22
g23
g15
tp163
(dp164
g7
F-0.8999999999999999
sg8
F-0.8999999999999999
sg9
F0.0
sg11
F-13.9
sg12
F0.0
sg27
F0.0
sg28
F-3.0
ss(g13
g2
g23
g15
tp165
(dp166
g7
I0
sg8
I0
sg9
I0
sg11
I0
sg12
I0
sg27
I0
sg28
I0
ss(g21
g14
g3
g15
tp167
(dp168
g7
I0
sg8
I0
sg9
I0
sg10
I0
sg11
I0
sg12
I0
ss(g1
g14
g23
g34
tp169
(dp170
g7
F0.0
sg8
F0.0
sg9
F0.0
sg11
F0.0
sg12
F0.0
sg27
F0.0
sg28
F0.0
ss(g1
g14
g23
g4
tp171
(dp172
g7
F0.0
sg8
F-18.0
sg9
F-10.0
sg11
F0.0
sg12
F0.0
sg27
F-5.3999999999999995
sg28
F-60.0
ss(g13
g2
g23
g34
tp173
(dp174
g7
F-3.0
sg8
F0.0
sg9
F0.0
sg11
F0.0
sg12
F-0.8999999999999999
sg27
F-10.0
sg28
F0.0
ss(g13
g22
g23
g37
tp175
(dp176
g7
I0
sg8
I0
sg9
I0
sg11
I0
sg12
I0
sg27
I0
sg28
I0
ss(g1
g14
g3
g50
tp177
(dp178
g7
F0.0
sg8
F0.0
sg9
F0.0
sg10
F0.0
sg11
F0.0
sg12
F0.0
ss(g1
g22
g23
g42
tp179
(dp180
g7
F0.0
sg8
F0.0
sg9
F0.0
sg11
I0
sg12
F0.0
sg27
F0.0
sg28
F0.0
ss(g21
g2
g23
g47
tp181
(dp182
g7
I0
sg8
I0
sg9
I0
sg11
I0
sg12
I0
sg27
I0
sg28
I0
ss(g13
g22
g3
g50
tp183
(dp184
g7
I0
sg8
I0
sg9
I0
sg10
I0
sg11
I0
sg12
I0
ss(g1
g22
g3
g47
tp185
(dp186
g7
F0.0
sg8
F0.0
sg9
F0.0
sg10
F0.0
sg11
F-0.8999999999999999
sg12
F0.0
ss(g21
g22
g3
g47
tp187
(dp188
g7
I0
sg8
I0
sg9
I0
sg10
I0
sg11
I0
sg12
I0
ss(g13
g2
g23
g24
tp189
(dp190
g7
F0.0
sg8
F0.0
sg9
I0
sg11
I0
sg12
F1.3499999999999999
sg27
F0.0
sg28
I0
ss(g21
g2
g3
g24
tp191
(dp192
g7
F0.0
sg8
F0.0
sg9
F0.0
sg10
F0.0
sg11
F0.0
sg12
F0.0
ss(g1
g14
g23
g18
tp193
(dp194
g7
F0.0
sg8
F0.0
sg9
F0.0
sg11
F0.0
sg12
F0.0
sg27
F0.0
sg28
F0.0
ss(g13
g14
g23
g106
tp195
(dp196
g7
F-20.0
sg8
F-6.0
sg9
F-6.0
sg11
F-20.0
sg12
F-20.0
sg27
F-20.0
sg28
F-20.0
ss(g21
g14
g3
g50
tp197
(dp198
g7
F4.5
sg8
F0.0
sg9
F0.0
sg10
F0.0
sg11
F0.0
sg12
F0.0
ss(g1
g22
g23
g29
tp199
(dp200
g7
I0
sg8
I0
sg9
I0
sg11
I0
sg12
I0
sg27
I0
sg28
I0
ss(g13
g14
g3
g18
tp201
(dp202
g7
I0
sg8
I0
sg9
I0
sg10
I0
sg11
I0
sg12
I0
ss(g21
g14
g3
g93
tp203
(dp204
g7
F0.0
sg8
F-1.7999999999999998
sg9
F0.0
sg10
F0.0
sg11
F0.0
sg12
F0.0
ss(g1
g22
g23
g93
tp205
(dp206
g7
I0
sg8
I0
sg9
I0
sg11
I0
sg12
I0
sg27
I0
sg28
I0
ss(g13
g2
g3
g93
tp207
(dp208
g7
I0
sg8
I0
sg9
I0
sg10
I0
sg11
I0
sg12
I0
ss(g13
g2
g23
g42
tp209
(dp210
g7
F-15.0
sg8
F-48.758
sg9
F-42.8000054
sg11
F0.0
sg12
F-50.0
sg27
F-12.84000162
sg28
F-50.0
ss(g21
g2
g3
g15
tp211
(dp212
g7
I0
sg8
I0
sg9
I0
sg10
I0
sg11
I0
sg12
I0
ss(g21
g2
g3
g50
tp213
(dp214
g7
F-1.7999999999999998
sg8
F0.0
sg9
F0.0
sg10
F0.0
sg11
F0.0
sg12
F-6.0
ss(g1
g22
g3
g24
tp215
(dp216
g7
I0
sg8
I0
sg9
I0
sg10
I0
sg11
I0
sg12
I0
ss(g13
g14
g3
g106
tp217
(dp218
g7
F-20.0
sg8
F-20.0
sg9
F0.0
sg10
F-20.0
sg11
F-6.0
sg12
F-20.0
ss(g21
g14
g23
g34
tp219
(dp220
g7
F-10.0
sg8
F0.0
sg9
F0.0
sg11
F0.0
sg12
F0.0
sg27
F0.0
sg28
F-0.8999999999999999
ss(g21
g14
g3
g4
tp221
(dp222
g7
F0.0
sg8
F9.0
sg9
F0.0
sg10
F0.0
sg11
F2.6999999999999997
sg12
F-0.8999999999999999
ss(g21
g2
g23
g42
tp223
(dp224
g7
F0.0
sg8
F0.0
sg9
F0.0
sg11
F0.0
sg12
F0.0
sg27
F0.0
sg28
F0.0
ss(g1
g2
g23
g93
tp225
(dp226
g7
I0
sg8
I0
sg9
I0
sg11
I0
sg12
I0
sg27
I0
sg28
I0
ss(g21
g22
g23
g42
tp227
(dp228
g7
F0.0
sg8
F0.0
sg9
F0.0
sg11
F10.0
sg12
F0.0
sg27
F0.0
sg28
I0
ss(g21
g22
g23
g47
tp229
(dp230
g7
I0
sg8
I0
sg9
I0
sg11
I0
sg12
I0
sg27
I0
sg28
I0
ss(g13
g22
g3
g47
tp231
(dp232
g7
I0
sg8
I0
sg9
I0
sg10
I0
sg11
I0
sg12
I0
ss(g13
g14
g23
g24
tp233
(dp234
g7
I0
sg8
I0
sg9
F0.0
sg11
F-40.0
sg12
F-40.0
sg27
F-12.0
sg28
I0
ss(g1
g22
g23
g37
tp235
(dp236
g7
I0
sg8
I0
sg9
I0
sg11
I0
sg12
I0
sg27
I0
sg28
I0
ss(g1
g2
g23
g50
tp237
(dp238
g7
I0
sg8
I0
sg9
F0.0
sg11
I0
sg12
F0.0
sg27
I0
sg28
F0.0
ss(g21
g22
g3
g29
tp239
(dp240
g7
I0
sg8
I0
sg9
I0
sg10
I0
sg11
I0
sg12
I0
ss(g21
g22
g3
g50
tp241
(dp242
g7
I0
sg8
I0
sg9
I0
sg10
I0
sg11
I0
sg12
I0
ss(g13
g14
g23
g15
tp243
(dp244
g7
I0
sg8
I0
sg9
I0
sg11
I0
sg12
I0
sg27
I0
sg28
I0
ss(g21
g14
g23
g93
tp245
(dp246
g7
F0.0
sg8
F-6.0
sg9
F0.0
sg11
F0.0
sg12
F-1.7999999999999998
sg27
F0.0
sg28
F0.0
ss(g21
g22
g23
g106
tp247
(dp248
g7
I0
sg8
I0
sg9
I0
sg11
I0
sg12
I0
sg27
I0
sg28
I0
ss(g1
g2
g3
g42
tp249
(dp250
g7
F0.0
sg8
I0
sg9
F0.0
sg10
F0.0
sg11
F0.0
sg12
F0.0
ss(g21
g14
g23
g50
tp251
(dp252
g7
F0.0
sg8
F0.0
sg9
F0.0
sg11
F0.0
sg12
F0.0
sg27
F0.0
sg28
F0.0
ss(g21
g22
g23
g29
tp253
(dp254
g7
I0
sg8
I0
sg9
I0
sg11
I0
sg12
I0
sg27
I0
sg28
I0
ss(g21
g22
g23
g18
tp255
(dp256
g7
I0
sg8
I0
sg9
I0
sg11
I0
sg12
I0
sg27
I0
sg28
I0
ss(g13
g22
g23
g106
tp257
(dp258
g7
I0
sg8
I0
sg9
I0
sg11
I0
sg12
I0
sg27
I0
sg28
I0
ss(g13
g22
g3
g18
tp259
(dp260
g7
I0
sg8
I0
sg9
I0
sg10
I0
sg11
I0
sg12
I0
ss(g1
g22
g3
g93
tp261
(dp262
g7
I0
sg8
I0
sg9
I0
sg10
I0
sg11
I0
sg12
I0
ss(g1
g2
g23
g4
tp263
(dp264
g7
F-0.8999999999999999
sg8
F0.0
sg9
F-18.0
sg11
F0.0
sg12
F0.0
sg27
F-60.0
sg28
F0.0
ss(g1
g14
g3
g24
tp265
(dp266
g7
F0.0
sg8
F0.0
sg9
F0.0
sg10
F0.0
sg11
F0.0
sg12
F0.0
ss(g21
g2
g23
g29
tp267
(dp268
g7
F0.0
sg8
F0.0
sg9
F0.0
sg11
F0.0
sg12
F0.0
sg27
F0.0
sg28
F0.0
ss(g21
g2
g3
g93
tp269
(dp270
g7
I0
sg8
I0
sg9
I0
sg10
I0
sg11
I0
sg12
I0
ss(g1
g2
g3
g29
tp271
(dp272
g7
F0.0
sg8
F0.0
sg9
F0.0
sg10
F0.0
sg11
F0.0
sg12
F0.0
ss(g1
g22
g3
g106
tp273
(dp274
g7
I0
sg8
I0
sg9
I0
sg10
I0
sg11
I0
sg12
I0
ss(g21
g22
g23
g4
tp275
(dp276
g7
I0
sg8
I0
sg9
I0
sg11
I0
sg12
I0
sg27
I0
sg28
I0
ss(g13
g14
g3
g42
tp277
(dp278
g7
F-50.0
sg8
F-48.758
sg9
F0.0
sg10
F-41.719995499999996
sg11
F-50.0
sg12
F0.0
ss(g13
g14
g3
g29
tp279
(dp280
g7
F-30.0
sg8
F-30.0
sg9
F-30.0
sg10
F-9.0
sg11
F-9.0
sg12
F-30.0
ss(g13
g22
g23
g15
tp281
(dp282
g7
I0
sg8
I0
sg9
I0
sg11
I0
sg12
I0
sg27
I0
sg28
I0
ss(g1
g22
g3
g4
tp283
(dp284
g7
F-0.8999999999999999
sg8
F-3.0
sg9
F0.0
sg10
F0.0
sg11
F0.8999999999999999
sg12
F0.0
ss(g13
g2
g3
g106
tp285
(dp286
g7
F0.0
sg8
F0.0
sg9
F0.0
sg10
F40.0
sg11
F0.0
sg12
F-1.5
ss(g21
g22
g3
g106
tp287
(dp288
g7
I0
sg8
I0
sg9
I0
sg10
I0
sg11
I0
sg12
I0
ss(g1
g14
g3
g106
tp289
(dp290
g7
F0.0
sg8
F0.0
sg9
F0.0
sg10
F0.0
sg11
F0.0
sg12
F0.0
ss(g1
g22
g23
g106
tp291
(dp292
g7
I0
sg8
I0
sg9
I0
sg11
I0
sg12
I0
sg27
I0
sg28
I0
ss(g21
g14
g23
g106
tp293
(dp294
g7
F9.0
sg8
F0.0
sg9
F0.0
sg11
F0.0
sg12
F0.0
sg27
F0.0
sg28
F2.6999999999999997
ss(g1
g2
g3
g106
tp295
(dp296
g7
F0.0
sg8
F0.0
sg9
F0.0
sg10
F0.0
sg11
F0.0
sg12
F0.0
ss(g1
g2
g23
g106
tp297
(dp298
g7
F0.0
sg8
F10.0
sg9
F0.0
sg11
F0.0
sg12
F0.0
sg27
F0.0
sg28
F0.0
ss(g13
g14
g23
g18
tp299
(dp300
g7
I0
sg8
I0
sg9
I0
sg11
I0
sg12
I0
sg27
I0
sg28
I0
ss(g13
g22
g23
g50
tp301
(dp302
g7
I0
sg8
I0
sg9
I0
sg11
I0
sg12
I0
sg27
I0
sg28
I0
ss(g21
g22
g3
g37
tp303
(dp304
g7
I0
sg8
I0
sg9
I0
sg10
I0
sg11
I0
sg12
I0
ss(g1
g2
g3
g50
tp305
(dp306
g7
F0.0
sg8
F0.0
sg9
F0.0
sg10
F0.0
sg11
F0.0
sg12
F0.0
ss(g13
g2
g23
g4
tp307
(dp308
g7
I0
sg8
I0
sg9
I0
sg11
I0
sg12
I0
sg27
I0
sg28
I0
ss(g13
g22
g3
g4
tp309
(dp310
g7
I0
sg8
I0
sg9
I0
sg10
I0
sg11
I0
sg12
I0
ss(g21
g14
g23
g18
tp311
(dp312
g7
F0.0
sg8
F0.0
sg9
F0.0
sg11
F0.0
sg12
F0.0
sg27
F0.0
sg28
F0.0
ss(g1
g22
g3
g42
tp313
(dp314
g7
I0
sg8
I0
sg9
I0
sg10
F0.0
sg11
F0.0
sg12
F0.0
ss(g13
g14
g3
g4
tp315
(dp316
g7
I0
sg8
I0
sg9
I0
sg10
I0
sg11
I0
sg12
I0
ss(g21
g2
g3
g34
tp317
(dp318
g7
F0.0
sg8
F0.0
sg9
F0.0
sg10
F-0.8999999999999999
sg11
F-3.0
sg12
F0.0
ss(g13
g22
g3
g24
tp319
(dp320
g7
I0
sg8
I0
sg9
I0
sg10
I0
sg11
I0
sg12
I0
ss(g1
g2
g23
g24
tp321
(dp322
g7
I0
sg8
I0
sg9
I0
sg11
I0
sg12
F0.0
sg27
I0
sg28
F0.0
ss(g21
g14
g23
g24
tp323
(dp324
g7
F0.0
sg8
F0.0
sg9
F-40.0
sg11
F0.0
sg12
F0.0
sg27
F0.0
sg28
F-12.0
ss(g1
g2
g23
g15
tp325
(dp326
g7
F0.0
sg8
F0.0
sg9
F0.0
sg11
F0.0
sg12
F0.0
sg27
F0.0
sg28
F0.0
ss(g1
g22
g3
g18
tp327
(dp328
g7
I0
sg8
I0
sg9
I0
sg10
I0
sg11
I0
sg12
I0
ss(g21
g14
g23
g42
tp329
(dp330
g7
F0.0
sg8
F0.0
sg9
F0.0
sg11
F0.0
sg12
F0.0
sg27
F0.0
sg28
F0.0
ss(g1
g14
g23
g50
tp331
(dp332
g7
F0.0
sg8
F0.0
sg9
F0.0
sg11
F0.0
sg12
F0.0
sg27
F0.0
sg28
F0.0
ss(g13
g2
g23
g50
tp333
(dp334
g7
I0
sg8
I0
sg9
I0
sg11
I0
sg12
I0
sg27
I0
sg28
I0
ss(g21
g14
g23
g29
tp335
(dp336
g7
F0.0
sg8
F0.0
sg9
F0.0
sg11
F0.0
sg12
F0.0
sg27
F0.0
sg28
F0.0
ss(g1
g14
g3
g93
tp337
(dp338
g7
F0.0
sg8
F0.0
sg9
F0.0
sg10
F0.0
sg11
F0.0
sg12
F0.0
ss(g1
g14
g23
g29
tp339
(dp340
g7
F0.0
sg8
F0.0
sg9
F0.0
sg11
F0.0
sg12
F0.0
sg27
F0.0
sg28
F0.0
ss(g13
g14
g3
g24
tp341
(dp342
g7
F0.0
sg8
F-3.5999999999999996
sg9
F0.0
sg10
F-35.95
sg11
F0.0
sg12
F-3.5999999999999996
ss(g13
g2
g23
g29
tp343
(dp344
g7
I0
sg8
I0
sg9
I0
sg11
I0
sg12
I0
sg27
F0.0
sg28
I0
ss(g21
g22
g23
g15
tp345
(dp346
g7
I0
sg8
I0
sg9
I0
sg11
I0
sg12
I0
sg27
I0
sg28
I0
ss(g1
g22
g23
g50
tp347
(dp348
g7
I0
sg8
I0
sg9
I0
sg11
I0
sg12
I0
sg27
I0
sg28
I0
ss(g13
g22
g3
g34
tp349
(dp350
g7
I0
sg8
I0
sg9
I0
sg10
F-20.0
sg11
I0
sg12
I0
ss(g13
g22
g23
g42
tp351
(dp352
g7
I0
sg8
F10.0
sg9
I0
sg11
I0
sg12
F0.0
sg27
F3.0
sg28
I0
ss(g21
g14
g3
g106
tp353
(dp354
g7
F0.0
sg8
F33.75
sg9
F0.0
sg10
F10.125
sg11
F0.0
sg12
F0.0
ss(g13
g14
g3
g50
tp355
(dp356
g7
F0.0
sg8
F0.0
sg9
F0.0
sg10
F4.95
sg11
F0.0
sg12
F0.0
ss(g21
g22
g3
g18
tp357
(dp358
g7
I0
sg8
I0
sg9
I0
sg10
I0
sg11
I0
sg12
I0
ss(g21
g22
g3
g4
tp359
(dp360
g7
I0
sg8
I0
sg9
I0
sg10
I0
sg11
I0
sg12
I0
ss(g13
g22
g3
g42
tp361
(dp362
g7
I0
sg8
I0
sg9
F0.0
sg10
F20.7
sg11
I0
sg12
F16.799999999999997
ss(g13
g2
g3
g4
tp363
(dp364
g7
I0
sg8
I0
sg9
I0
sg10
I0
sg11
I0
sg12
I0
ss(g21
g2
g3
g47
tp365
(dp366
g7
I0
sg8
I0
sg9
I0
sg10
I0
sg11
I0
sg12
I0
ss(g13
g22
g23
g29
tp367
(dp368
g7
I0
sg8
I0
sg9
I0
sg11
I0
sg12
I0
sg27
I0
sg28
I0
ss(g21
g22
g3
g24
tp369
(dp370
g7
I0
sg8
I0
sg9
I0
sg10
I0
sg11
I0
sg12
I0
ss(g1
g22
g23
g4
tp371
(dp372
g7
F0.0
sg8
F0.0
sg9
F0.0
sg11
F-30.0
sg12
F0.0
sg27
F-9.0
sg28
F0.0
ss(g21
g14
g23
g4
tp373
(dp374
g7
F0.0
sg8
F0.0
sg9
I0
sg11
I0
sg12
F0.0
sg27
F0.0
sg28
F-3.0
ss(g1
g14
g23
g106
tp375
(dp376
g7
F0.0
sg8
F0.0
sg9
F0.0
sg11
F0.0
sg12
F0.0
sg27
F0.0
sg28
F0.0
ss(g1
g22
g3
g37
tp377
(dp378
g7
I0
sg8
I0
sg9
I0
sg10
I0
sg11
I0
sg12
I0
ss(g1
g2
g3
g93
tp379
(dp380
g7
I0
sg8
I0
sg9
I0
sg10
I0
sg11
I0
sg12
I0
ss(g1
g14
g3
g37
tp381
(dp382
g7
F0.0
sg8
F0.0
sg9
F0.0
sg10
F0.0
sg11
F0.0
sg12
F0.0
ss(g13
g14
g23
g29
tp383
(dp384
g7
F-30.0
sg8
F-30.0
sg9
F0.0
sg11
F-30.0
sg12
F-9.0
sg27
F-30.0
sg28
F-9.0
ss(g21
g14
g3
g42
tp385
(dp386
g7
F0.0
sg8
F0.0
sg9
F0.0
sg10
F0.0
sg11
F0.0
sg12
F0.0
ss(g1
g14
g23
g93
tp387
(dp388
g7
F0.0
sg8
F0.0
sg9
F0.0
sg11
F0.0
sg12
F0.0
sg27
F0.0
sg28
F0.0
ss(g21
g22
g3
g15
tp389
(dp390
g7
I0
sg8
I0
sg9
I0
sg10
I0
sg11
I0
sg12
I0
ss(g1
g14
g23
g42
tp391
(dp392
g7
F0.0
sg8
F0.0
sg9
F0.0
sg11
F0.0
sg12
F0.0
sg27
F0.0
sg28
F0.0
ss(g21
g2
g23
g93
tp393
(dp394
g7
I0
sg8
I0
sg9
I0
sg11
I0
sg12
I0
sg27
I0
sg28
I0
ss(g13
g22
g23
g47
tp395
(dp396
g7
I0
sg8
I0
sg9
I0
sg11
I0
sg12
I0
sg27
I0
sg28
I0
ss(g21
g2
g3
g29
tp397
(dp398
g7
F0.0
sg8
F10.0
sg9
F8.099995499999999
sg10
F2.15999865
sg11
F26.999985
sg12
F0.0
ss(g21
g2
g23
g4
tp399
(dp400
g7
F-60.0
sg8
F0.0
sg9
F0.0
sg11
F-10.0
sg12
F0.0
sg27
F0.0
sg28
F-0.8999999999999999
ss(g13
g22
g23
g4
tp401
(dp402
g7
I0
sg8
I0
sg9
I0
sg11
I0
sg12
I0
sg27
I0
sg28
I0
ss(g1
g14
g3
g18
tp403
(dp404
g7
F0.0
sg8
F0.0
sg9
F0.0
sg10
F0.0
sg11
F0.0
sg12
F0.0
ss(g21
g14
g3
g18
tp405
(dp406
g7
F0.0
sg8
F0.0
sg9
F0.0
sg10
F0.0
sg11
F0.0
sg12
F0.0
ss(g21
g14
g3
g29
tp407
(dp408
g7
F0.0
sg8
F0.0
sg9
F0.0
sg10
F0.0
sg11
F0.0
sg12
F-2.6999999999999997
ss(g13
g2
g23
g106
tp409
(dp410
g7
I0
sg8
F-5.0
sg9
F0.0
sg11
F0.0
sg12
F0.0
sg27
F0.0
sg28
F0.0
ss(g13
g22
g3
g37
tp411
(dp412
g7
I0
sg8
I0
sg9
I0
sg10
I0
sg11
I0
sg12
I0
ss(g1
g14
g3
g42
tp413
(dp414
g7
F0.0
sg8
F0.0
sg9
F0.0
sg10
F0.0
sg11
F0.0
sg12
F0.0
ss(g13
g14
g23
g42
tp415
(dp416
g7
F-50.0
sg8
F0.0
sg9
F-15.0
sg11
F-50.0
sg12
F-15.0
sg27
F-50.0
sg28
F-4.5
ss(g13
g2
g23
g93
tp417
(dp418
g7
I0
sg8
I0
sg9
I0
sg11
I0
sg12
I0
sg27
I0
sg28
I0
ss(g13
g2
g23
g47
tp419
(dp420
g7
I0
sg8
I0
sg9
I0
sg11
I0
sg12
I0
sg27
I0
sg28
I0
ss(g21
g22
g23
g50
tp421
(dp422
g7
I0
sg8
I0
sg9
I0
sg11
I0
sg12
I0
sg27
I0
sg28
I0
ss(g13
g14
g23
g4
tp423
(dp424
g7
I0
sg8
I0
sg9
I0
sg11
I0
sg12
I0
sg27
I0
sg28
I0
ss(g1
g14
g23
g47
tp425
(dp426
g7
F0.0
sg8
F0.0
sg9
F0.0
sg11
F0.0
sg12
F0.0
sg27
F0.0
sg28
F0.0
ss(g21
g14
g23
g15
tp427
(dp428
g7
I0
sg8
I0
sg9
I0
sg11
I0
sg12
I0
sg27
I0
sg28
I0
ss(g21
g2
g3
g4
tp429
(dp430
g7
F-3.0
sg8
F-0.8999999999999986
sg9
F0.0
sg10
F0.0
sg11
F-10.0
sg12
F0.0
ss(g13
g14
g3
g93
tp431
(dp432
g7
F-1.7999999999999998
sg8
F-6.0
sg9
F-20.0
sg10
F-13.25
sg11
F-6.0
sg12
F-6.0
ss(g21
g22
g23
g34
tp433
(dp434
g7
F0.0
sg8
F-3.0
sg9
F10.0
sg11
F-0.8999999999999999
sg12
F0.0
sg27
F-0.9000000000000004
sg28
F0.0
ss(g13
g2
g3
g18
tp435
(dp436
g7
I0
sg8
I0
sg9
I0
sg10
I0
sg11
I0
sg12
I0
ss(g1
g2
g23
g42
tp437
(dp438
g7
F0.0
sg8
I0
sg9
I0
sg11
F0.0
sg12
F0.0
sg27
F0.0
sg28
F0.0
ss(g13
g2
g3
g42
tp439
(dp440
g7
I0
sg8
F-50.0
sg9
F-44.96
sg10
F0.0
sg11
F0.0
sg12
F0.0
ss(g21
g14
g3
g37
tp441
(dp442
g7
F0.0
sg8
F0.0
sg9
F0.0
sg10
F0.0
sg11
F0.0
sg12
F0.0
ss(g1
g14
g23
g24
tp443
(dp444
g7
F0.0
sg8
F0.0
sg9
F0.0
sg11
F0.0
sg12
F0.0
sg27
F0.0
sg28
F0.0
ss(g1
g2
g23
g18
tp445
(dp446
g7
I0
sg8
I0
sg9
I0
sg11
I0
sg12
I0
sg27
I0
sg28
I0
ss(g1
g2
g23
g29
tp447
(dp448
g7
F0.0
sg8
F0.0
sg9
F0.0
sg11
F0.0
sg12
F0.0
sg27
F0.0
sg28
F0.0
ss(g13
g22
g23
g93
tp449
(dp450
g7
I0
sg8
I0
sg9
I0
sg11
I0
sg12
I0
sg27
I0
sg28
I0
ss(g1
g22
g23
g18
tp451
(dp452
g7
I0
sg8
I0
sg9
I0
sg11
I0
sg12
I0
sg27
I0
sg28
I0
ss(g13
g2
g3
g50
tp453
(dp454
g7
I0
sg8
I0
sg9
I0
sg10
I0
sg11
I0
sg12
I0
ss(g13
g22
g23
g18
tp455
(dp456
g7
I0
sg8
I0
sg9
I0
sg11
I0
sg12
I0
sg27
I0
sg28
I0
ss(g1
g14
g3
g29
tp457
(dp458
g7
F0.0
sg8
F0.0
sg9
F0.0
sg10
F0.0
sg11
F0.0
sg12
F0.0
ss(g13
g22
g3
g15
tp459
(dp460
g7
I0
sg8
I0
sg9
I0
sg10
I0
sg11
I0
sg12
I0
ss.