(dp0
(S'Close'
p1
S'Hi'
p2
S'bow'
p3
tp4
(dp5
S'strafe 1'
p6
F-30.0
sS'strafe 0'
p7
F-20.0
sS'strafe -1'
p8
F0.0
sS'move 1'
p9
F0.0
sS'move 0'
p10
F-20.0
sS'switch'
p11
F-36.1999955
sS'use 0'
p12
F-30.0
sS'use 1'
p13
F0.0
ss(S'Far'
p14
g2
S'sword'
p15
tp16
(dp17
g6
F0.0
sg7
F0.0
sg8
F0.0
sS'attack 1'
p18
F0.0
sg9
F0.0
sg10
F0.0
sg11
F0.0
ss(g1
S'Low'
p19
g3
tp20
(dp21
g6
I0
sg7
F0.0
sg8
F18.0
sg9
F60.0
sg10
F0.0
sg11
F0.0
sg12
F-20.0
sg13
F0.0
ss(g14
S'Med'
p22
g3
tp23
(dp24
g6
F0.0
sg7
F-10.0
sg8
F-3.0
sg9
F-3.0
sg10
F-0.8999999999999999
sg11
F0.0
sg12
F-0.8999999999999999
sg13
F0.0
ss(S'Melee'
p25
g22
g3
tp26
(dp27
g6
F0.0
sg7
F0.0
sg8
F-10.0
sg9
F0.0
sg10
F-10.0
sg11
F0.0
sg12
F-9.9
sg13
F-10.0
ss(g14
g2
g3
tp28
(dp29
g6
F0.0
sg7
F0.0
sg8
F0.0
sg9
F0.0
sg10
F0.0
sg11
F0.0
sg12
F0.0
sg13
F0.0
ss(g25
g19
g15
tp30
(dp31
g6
F0.0
sg7
F0.0
sg8
F0.0
sg18
F0.0
sg9
F0.0
sg10
F0.0
sg11
F0.0
ss(g14
g19
g15
tp32
(dp33
g6
F0.0
sg7
F-10.0
sg8
F0.0
sg18
F0.0
sg9
F0.0
sg10
F10.0
sg11
F-10.0
ss(g1
g22
g15
tp34
(dp35
g6
F0.0
sg7
F-6.0
sg8
F0.0
sg18
F0.0
sg9
F0.0
sg10
F-1.7999999999999998
sg11
F-0.8999999999999999
ss(g1
g22
g3
tp36
(dp37
g6
F-3.0
sg7
F-30.0
sg8
F-2.6999999999999993
sg9
F-9.0
sg10
F-30.0
sg11
F0.0
sg12
F0.0
sg13
F-6.0
ss(g25
g22
g15
tp38
(dp39
g6
F0.0
sg7
F0.0
sg8
F0.0
sg18
F0.0
sg9
F-10.0
sg10
F-3.0
sg11
F0.0
ss(g14
g22
g15
tp40
(dp41
g6
F0.0
sg7
F0.0
sg8
F-2.1
sg18
F-3.0
sg9
F0.0
sg10
F0.0
sg11
F0.0
ss(g14
g19
g3
tp42
(dp43
g6
F-13.0
sg7
F0.0
sg8
F0.0
sg9
F0.0
sg10
F0.0
sg11
F-3.0
sg12
F-10.0
sg13
F0.0
ss(g25
g19
g3
tp44
(dp45
g6
F0.0
sg7
F0.0
sg8
F-3.0
sg9
F0.0
sg10
F-10.0
sg11
F0.0
sg12
F0.0
sg13
F0.8999999999999999
ss(g1
g2
g15
tp46
(dp47
g6
F-30.0
sg7
F-20.0
sg8
F-20.0
sg18
F-15.950000000000003
sg9
F-9.0
sg10
F-20.0
sg11
F37.799989499999995
ss(g1
g19
g15
tp48
(dp49
g6
F8.339995499999999
sg7
F0.0
sg8
F-9.0
sg18
I0
sg9
F0.0
sg10
F0.0
sg11
F0.0
ss(g25
g2
g15
tp50
(dp51
g6
F0.0
sg7
F0.0
sg8
F0.0
sg18
F0.0
sg9
F-6.0
sg10
F0.0
sg11
F0.0
ss(g25
g2
g3
tp52
(dp53
g6
F0.0
sg7
F0.0
sg8
F0.0
sg9
F0.0
sg10
F0.0
sg11
F0.0
sg12
F0.0
sg13
F0.8999999999999999
ss.