(dp0
(S'Melee'
p1
S'Hi'
p2
tp3
(dp4
S'strafe 0'
p5
F15.0
sS'strafe -0.75'
p6
F11.0
sS'strafe 0.75'
p7
F17.0
sS'attack 1'
p8
F13.0
sS'move -0.75'
p9
F14.0
sS'move 0'
p10
F15.0
sS'switch'
p11
F10.0
sS'move 0.75'
p12
F12.0
ssN(dp13
g5
I0
sg6
I0
sg7
I0
sg8
I0
sg9
I0
sg10
I0
sg11
I0
sg12
I0
ss(S'Far'
p14
S'Med'
p15
tp16
(dp17
g5
F9.0
sg6
F8.0
sg7
F8.0
sg8
F8.0
sg9
F7.0
sg10
F10.0
sg11
F9.0
sg12
F8.0
ss(g14
S'Low'
p18
tp19
(dp20
g5
I0
sg6
F2.0
sg7
F2.0
sg8
I0
sg9
F2.0
sg10
F1.0
sg11
F1.0
sg12
F2.0
ss(g1
g15
tp21
(dp22
g5
F0.0
sg6
F5.0
sg7
F5.0
sg8
F3.0
sg9
F3.0
sg10
F2.0
sg11
F0.0
sg12
F5.0
ss(g1
g18
tp23
(dp24
g5
F0.0
sg6
F0.0
sg7
F0.0
sg8
F0.0
sg9
F0.0
sg10
F0.0
sg11
F0.0
sg12
F0.0
ss(g14
g2
tp25
(dp26
g5
F20.0
sg6
F20.0
sg7
F20.0
sg8
F20.0
sg9
F20.0
sg10
F20.0
sg11
F20.0
sg12
F20.0
ss(S'Near'
p27
g2
tp28
(dp29
g5
F14.0
sg6
F15.0
sg7
F14.0
sg8
F14.0
sg9
F14.0
sg10
F14.0
sg11
F15.0
sg12
F14.0
ss(S'Finished'
p30
tp31
(dp32
g5
I0
sg6
I0
sg7
I0
sg8
I0
sg9
I0
sg10
I0
sg11
I0
sg12
I0
ss(g27
g18
tp33
(dp34
g5
F0.0
sg6
F0.0
sg7
F0.0
sg8
F0.0
sg9
F0.0
sg10
F0.0
sg11
F0.0
sg12
F0.0
ss(g27
g15
tp35
(dp36
g5
F7.0
sg6
F5.0
sg7
F5.0
sg8
F3.0
sg9
F5.0
sg10
F5.0
sg11
F3.0
sg12
F7.0
ss.
