(dp0
(S'Far'
p1
S'Hi'
p2
tp3
(dp4
S'strafe 1'
p5
I0
sS'strafe 0'
p6
I0
sS'strafe -1'
p7
I0
sS'attack 1'
p8
I0
sS'move 1'
p9
I0
sS'move 0'
p10
I0
ss(S'Melee'
p11
g2
tp12
(dp13
g5
I0
sg6
I0
sg7
I0
sg8
I0
sg9
I0
sg10
I0
ss(S'Near'
p14
g2
tp15
(dp16
g5
I0
sg6
I0
sg7
I0
sg8
I0
sg9
I0
sg10
I0
ss(g1
S'Med'
p17
tp18
(dp19
g5
I0
sg6
I0
sg7
I0
sg8
I0
sg9
I0
sg10
I0
ss(g14
S'Low'
p20
tp21
(dp22
g5
I0
sg6
I0
sg7
I0
sg8
I0
sg9
I0
sg10
I0
ss(g1
g20
tp23
(dp24
g5
I0
sg6
I0
sg7
I0
sg8
I0
sg9
I0
sg10
I0
ss(g14
g17
tp25
(dp26
g5
I0
sg6
I0
sg7
I0
sg8
I0
sg9
I0
sg10
I0
ss.