(dp0
(S'Melee'
p1
S'Hi'
p2
tp3
(dp4
S'strafe 1'
p5
I0
sS'strafe 0'
p6
I0
sS'strafe -1'
p7
I0
sS'attack 1'
p8
I0
sS'move 1'
p9
I0
sS'move 0'
p10
I0
ss(S'Far'
p11
S'Med'
p12
tp13
(dp14
g5
I0
sg6
I0
sg7
I0
sg8
I0
sg9
I0
sg10
I0
ss(g11
S'Low'
p15
tp16
(dp17
g5
I0
sg6
I0
sg7
I0
sg8
I0
sg9
I0
sg10
I0
ss(g1
g12
tp18
(dp19
g5
I0
sg6
I0
sg7
I0
sg8
I0
sg9
I0
sg10
I0
ss(g11
g2
tp20
(dp21
g5
I0
sg6
I0
sg7
I0
sg8
I0
sg9
I0
sg10
I0
ss(S'Near'
p22
g2
tp23
(dp24
g5
I0
sg6
I0
sg7
I0
sg8
I0
sg9
I0
sg10
I0
ss(g22
g15
tp25
(dp26
g5
I0
sg6
I0
sg7
I0
sg8
I0
sg9
I0
sg10
I0
ss(g22
g12
tp27
(dp28
g5
I0
sg6
I0
sg7
I0
sg8
I0
sg9
I0
sg10
I0
ss.