(dp0
(S'Close'
p1
S'Hi'
p2
S'bow'
p3
tp4
(dp5
S'strafe 1'
p6
F-3.0
sS'strafe -1'
p7
F-3.57
sS'move -1'
p8
F-5.1
sS'move 1'
p9
F-3.0
sS'switch'
p10
F1.02113019771
sS'use 0'
p11
F-3.0
sS'use 1'
p12
F-3.0
ss(S'Far'
p13
g2
S'sword'
p14
tp15
(dp16
g6
F-0.0004139878828902662
sg7
F14.370009958395004
sg8
F14.508719268917574
sS'attack 1'
p17
F-0.001287030640993436
sg9
F-0.00010341493803395688
sg10
F-0.0034471507079565106
ss(g1
S'Low'
p18
g3
tp19
(dp20
g6
I0
sg7
I0
sg8
I0
sg9
I0
sg10
I0
sg11
I0
sg12
I0
ss(g13
S'Med'
p21
g3
tp22
(dp23
g6
F-17.3152574253
sg7
F-14.82705597
sg8
F0.0
sg9
F-9.0
sg10
F0.0
sg11
F-15.178939179
sg12
F-9.0
ss(S'Melee'
p24
g21
g3
tp25
(dp26
g6
I0
sg7
I0
sg8
I0
sg9
I0
sg10
I0
sg11
I0
sg12
I0
ss(g13
g2
g3
tp27
(dp28
g6
F-17.99999803456706
sg7
F-7.0928902491370245
sg8
F0.02051801207729687
sg9
F0.001810442636546354
sg10
F-0.04982280563233368
sg11
F-12.599998624196942
sg12
F0.02858328366019946
ss(g24
g18
g14
tp29
(dp30
g6
I0
sg7
I0
sg8
I0
sg17
I0
sg9
I0
sg10
I0
ss(g13
g18
g14
tp31
(dp32
g6
F0.0
sg7
I0
sg8
F0.0
sg17
I0
sg9
F0.0
sg10
F0.0
ss(g1
g21
g14
tp33
(dp34
g6
I0
sg7
I0
sg8
I0
sg17
I0
sg9
I0
sg10
I0
ss(g1
g21
g3
tp35
(dp36
g6
I0
sg7
I0
sg8
I0
sg9
I0
sg10
I0
sg11
I0
sg12
I0
ss(g24
g21
g14
tp37
(dp38
g6
I0
sg7
I0
sg8
I0
sg17
I0
sg9
I0
sg10
I0
ss(g13
g21
g14
tp39
(dp40
g6
F0.0
sg7
F0.0
sg8
F0.0
sg17
F0.0
sg9
F0.0
sg10
F0.0
ss(g13
g18
g3
tp41
(dp42
g6
F-9.0
sg7
F-9.0
sg8
F0.0
sg9
F-12.3
sg10
F0.0
sg11
F0.0
sg12
F-2.1
ss(g24
g18
g3
tp43
(dp44
g6
I0
sg7
I0
sg8
I0
sg9
I0
sg10
I0
sg11
I0
sg12
I0
ss(g1
g2
g14
tp45
(dp46
g6
F-2.1
sg7
F-1.7058033956999998
sg8
F-5.183586238593
sg17
F53.22191217185478
sg9
F-8.97563983122604
sg10
F1.422439179
ss(g1
g18
g14
tp47
(dp48
g6
I0
sg7
I0
sg8
I0
sg17
I0
sg9
I0
sg10
I0
ss(g24
g2
g14
tp49
(dp50
g6
F6.6155348772135
sg7
F0.036639305952985125
sg8
F4.456935997949774
sg17
F19.995146470723007
sg9
F-1.4982352222939375
sg10
F-0.08474257470000005
ss(g24
g2
g3
tp51
(dp52
g6
F0.0
sg7
F15.479995499999998
sg8
F-0.508449785165385
sg9
F0.17795940687319095
sg10
F15.851629984808998
sg11
F22.846671708759
sg12
F12.420004500000003
ss.