(dp0
(S'Near'
p1
S'Hi'
p2
VSkeleton
p3
tp4
(dp5
S'strafe 1'
p6
I0
sS'strafe 0'
p7
I0
sS'strafe -1'
p8
I0
sS'attack 1'
p9
I0
sS'move 1'
p10
I0
sS'move 0'
p11
I0
ss(S'Far'
p12
g2
VGhast
p13
tp14
(dp15
g6
I0
sg7
I0
sg8
I0
sg9
I0
sg10
I0
sg11
I0
ss(g12
g2
VSpider
p16
tp17
(dp18
g6
I0
sg7
I0
sg8
I0
sg9
I0
sg10
I0
sg11
I0
ss(S'Melee'
p19
g2
VCreeper
p20
tp21
(dp22
g6
I0
sg7
I0
sg8
I0
sg9
I0
sg10
I0
sg11
I0
ss(g1
g2
VCreeper
p23
tp24
(dp25
g6
I0
sg7
I0
sg8
I0
sg9
I0
sg10
I0
sg11
I0
ss(g1
S'Med'
p26
VWitch
p27
tp28
(dp29
g6
I0
sg7
I0
sg8
I0
sg9
I0
sg10
I0
sg11
I0
ss(g19
g2
VSkeleton
p30
tp31
(dp32
g6
I0
sg7
I0
sg8
I0
sg9
I0
sg10
I0
sg11
I0
ss(g1
g2
VBlaze
p33
tp34
(dp35
g6
I0
sg7
I0
sg8
I0
sg9
I0
sg10
I0
sg11
I0
ss(g1
g2
VCave Spider
p36
tp37
(dp38
g6
I0
sg7
I0
sg8
I0
sg9
I0
sg10
I0
sg11
I0
ss(g19
g2
VCave Spider
p39
tp40
(dp41
g6
I0
sg7
I0
sg8
I0
sg9
I0
sg10
I0
sg11
I0
ss(g19
g26
VZombie Pigman
p42
tp43
(dp44
g6
I0
sg7
I0
sg8
I0
sg9
I0
sg10
I0
sg11
I0
ss(g12
g2
VCreeper
p45
tp46
(dp47
g6
I0
sg7
I0
sg8
I0
sg9
I0
sg10
I0
sg11
I0
ss(g12
g26
VBlaze
p48
tp49
(dp50
g6
I0
sg7
I0
sg8
I0
sg9
I0
sg10
I0
sg11
I0
ss(g19
g2
VBlaze
p51
tp52
(dp53
g6
I0
sg7
I0
sg8
I0
sg9
I0
sg10
I0
sg11
I0
ss(g19
g2
VSilverfish
p54
tp55
(dp56
g6
I0
sg7
I0
sg8
I0
sg9
I0
sg10
I0
sg11
I0
ss(g1
g2
VGhast
p57
tp58
(dp59
g6
I0
sg7
I0
sg8
I0
sg9
I0
sg10
I0
sg11
I0
ss(g1
g2
VWitch
p60
tp61
(dp62
g6
I0
sg7
I0
sg8
I0
sg9
I0
sg10
I0
sg11
I0
ss(g1
g2
VSilverfish
p63
tp64
(dp65
g6
I0
sg7
I0
sg8
I0
sg9
I0
sg10
I0
sg11
I0
ss(g12
g2
VEndermite
p66
tp67
(dp68
g6
I0
sg7
I0
sg8
I0
sg9
I0
sg10
I0
sg11
I0
ss(g12
g2
VSkeleton
p69
tp70
(dp71
g6
I0
sg7
I0
sg8
I0
sg9
I0
sg10
I0
sg11
I0
ss(g1
S'Low'
p72
VWitch
p73
tp74
(dp75
g6
I0
sg7
I0
sg8
I0
sg9
I0
sg10
I0
sg11
I0
ss(g19
g26
VBlaze
p76
tp77
(dp78
g6
I0
sg7
I0
sg8
I0
sg9
I0
sg10
I0
sg11
I0
ss(g12
g72
VBlaze
p79
tp80
(dp81
g6
I0
sg7
I0
sg8
I0
sg9
I0
sg10
I0
sg11
I0
ss(g12
g2
VCave Spider
p82
tp83
(dp84
g6
I0
sg7
I0
sg8
I0
sg9
I0
sg10
I0
sg11
I0
ss(g19
g26
VCave Spider
p85
tp86
(dp87
g6
I0
sg7
I0
sg8
I0
sg9
I0
sg10
I0
sg11
I0
ss(g12
g2
VZombie
p88
tp89
(dp90
g6
I0
sg7
I0
sg8
I0
sg9
I0
sg10
I0
sg11
I0
ss(g12
g2
VBlaze
p91
tp92
(dp93
g6
I0
sg7
I0
sg8
I0
sg9
I0
sg10
I0
sg11
I0
ss(g12
g2
VSilverfish
p94
tp95
(dp96
g6
I0
sg7
I0
sg8
I0
sg9
I0
sg10
I0
sg11
I0
ss(g1
g2
VZombie
p97
tp98
(dp99
g6
I0
sg7
I0
sg8
I0
sg9
I0
sg10
I0
sg11
I0
ss(g19
g2
VWitch
p100
tp101
(dp102
g6
I0
sg7
I0
sg8
I0
sg9
I0
sg10
I0
sg11
I0
ss(g19
g2
VSpider
p103
tp104
(dp105
g6
I0
sg7
I0
sg8
I0
sg9
I0
sg10
I0
sg11
I0
ss(g1
g2
VSpider
p106
tp107
(dp108
g6
I0
sg7
I0
sg8
I0
sg9
I0
sg10
I0
sg11
I0
ss(g1
g2
VWolf
p109
tp110
(dp111
g6
I0
sg7
I0
sg8
I0
sg9
I0
sg10
I0
sg11
I0
ss(g19
g2
VZombie Pigman
p112
tp113
(dp114
g6
I0
sg7
I0
sg8
I0
sg9
I0
sg10
I0
sg11
I0
ss(g1
g72
VBlaze
p115
tp116
(dp117
g6
I0
sg7
I0
sg8
I0
sg9
I0
sg10
I0
sg11
I0
ss(g12
g2
VWitch
p118
tp119
(dp120
g6
I0
sg7
I0
sg8
I0
sg9
I0
sg10
I0
sg11
I0
ss(g19
g26
VWitch
p121
tp122
(dp123
g6
I0
sg7
I0
sg8
I0
sg9
I0
sg10
I0
sg11
I0
ss(g1
g2
VEndermite
p124
tp125
(dp126
g6
I0
sg7
I0
sg8
I0
sg9
I0
sg10
I0
sg11
I0
ss(g1
g2
VZombie Pigman
p127
tp128
(dp129
g6
I0
sg7
I0
sg8
I0
sg9
I0
sg10
I0
sg11
I0
ss(g19
g2
VWolf
p130
tp131
(dp132
g6
I0
sg7
I0
sg8
I0
sg9
I0
sg10
I0
sg11
I0
ss(g19
g2
VZombie
p133
tp134
(dp135
g6
I0
sg7
I0
sg8
I0
sg9
I0
sg10
I0
sg11
I0
ss(g19
g72
VWitch
p136
tp137
(dp138
g6
I0
sg7
I0
sg8
I0
sg9
I0
sg10
I0
sg11
I0
ss(g19
g2
VEndermite
p139
tp140
(dp141
g6
I0
sg7
I0
sg8
I0
sg9
I0
sg10
I0
sg11
I0
ss(g1
g26
VBlaze
p142
tp143
(dp144
g6
I0
sg7
I0
sg8
I0
sg9
I0
sg10
I0
sg11
I0
ss(g12
g2
VZombie Pigman
p145
tp146
(dp147
g6
I0
sg7
I0
sg8
I0
sg9
I0
sg10
I0
sg11
I0
ss(g1
g26
VCave Spider
p148
tp149
(dp150
g6
I0
sg7
I0
sg8
I0
sg9
I0
sg10
I0
sg11
I0
ss(g12
g2
VWolf
p151
tp152
(dp153
g6
I0
sg7
I0
sg8
I0
sg9
I0
sg10
I0
sg11
I0
ss.