(dp0
(S'Far'
p1
S'Med'
p2
S'sword'
p3
S'Witch'
p4
tp5
(dp6
S'strafe 1'
p7
F-6.421062899999999
sS'strafe -1'
p8
F-23.042353268878532
sS'move -1'
p9
F-30.743841959436008
sS'attack 1'
p10
F-27.677157
sS'move 1'
p11
F-13.806714059313002
sS'switch'
p12
F-15.121547593879171
ss(S'Close'
p13
S'Hi'
p14
g3
S'Blaze'
p15
tp16
(dp17
g7
I0
sg8
I0
sg9
I0
sg10
I0
sg11
I0
sg12
I0
ss(g1
g2
g3
S'Creeper'
p18
tp19
(dp20
g7
I0
sg8
I0
sg9
I0
sg10
I0
sg11
I0
sg12
I0
ss(S'Melee'
p21
S'Low'
p22
S'bow'
p23
S'Wolf'
p24
tp25
(dp26
g7
I0
sg8
I0
sg9
I0
sg11
I0
sg12
I0
sS'use 0'
p27
I0
sS'use 1'
p28
I0
ss(g1
g22
g3
S'Zombie'
p29
tp30
(dp31
g7
I0
sg8
I0
sg9
I0
sg10
I0
sg11
I0
sg12
I0
ss(g1
g2
g3
g15
tp32
(dp33
g7
F-0.12353063469243006
sg8
F-2.254193944996029
sg9
F-0.3529470000000001
sg10
F5.142940048071058
sg11
F5.9681966043
sg12
F-16.224509685326915
ss(g13
g14
g3
S'Cave Spider'
p34
tp35
(dp36
g7
F0.0
sg8
I0
sg9
F0.0
sg10
I0
sg11
I0
sg12
F5.6175
ss(g21
g22
g23
S'Silverfish'
p37
tp38
(dp39
g7
I0
sg8
I0
sg9
I0
sg11
I0
sg12
I0
sg27
I0
sg28
I0
ss(g13
g22
g23
g24
tp40
(dp41
g7
I0
sg8
I0
sg9
I0
sg11
I0
sg12
I0
sg27
I0
sg28
I0
ss(g21
g22
g3
S'Zombie Pigman'
p42
tp43
(dp44
g7
I0
sg8
I0
sg9
I0
sg10
I0
sg11
I0
sg12
I0
ss(g1
g2
g3
g34
tp45
(dp46
g7
I0
sg8
I0
sg9
I0
sg10
I0
sg11
I0
sg12
F0.0
ss(g1
g2
g23
S'Ghast'
p47
tp48
(dp49
g7
I0
sg8
I0
sg9
I0
sg11
I0
sg12
I0
sg27
I0
sg28
I0
ss(g21
g2
g23
S'Spider'
p50
tp51
(dp52
g7
I0
sg8
I0
sg9
I0
sg11
I0
sg12
I0
sg27
I0
sg28
I0
ss(g21
g2
g23
g37
tp53
(dp54
g7
I0
sg8
I0
sg9
I0
sg11
I0
sg12
I0
sg27
I0
sg28
I0
ss(g1
g2
g3
g24
tp55
(dp56
g7
I0
sg8
I0
sg9
I0
sg10
I0
sg11
I0
sg12
I0
ss(g1
g14
g23
g37
tp57
(dp58
g7
F0.0
sg8
F1.3103145374981078e-07
sg9
F3.8863031106568e-08
sg11
F0.0
sg12
F0.0
sg27
F5.3954161594317e-08
sg28
F0.0
ss(g13
g22
g23
g34
tp59
(dp60
g7
I0
sg8
I0
sg9
I0
sg11
I0
sg12
I0
sg27
I0
sg28
I0
ss(g13
g2
g23
g37
tp61
(dp62
g7
I0
sg8
I0
sg9
I0
sg11
I0
sg12
I0
sg27
I0
sg28
I0
ss(g21
g22
g3
g34
tp63
(dp64
g7
F0.0
sg8
F9.0
sg9
F0.0
sg10
F4.41
sg11
F0.0
sg12
F6.300000000000001
ss(g1
g22
g3
g34
tp65
(dp66
g7
I0
sg8
I0
sg9
I0
sg10
I0
sg11
I0
sg12
I0
ss(g1
g2
g23
g37
tp67
(dp68
g7
I0
sg8
I0
sg9
I0
sg11
I0
sg12
I0
sg27
I0
sg28
I0
ss(g21
g2
g23
g18
tp69
(dp70
g7
I0
sg8
I0
sg9
I0
sg11
I0
sg12
I0
sg27
I0
sg28
I0
ss(g21
g2
g3
g18
tp71
(dp72
g7
I0
sg8
I0
sg9
I0
sg10
I0
sg11
I0
sg12
I0
ss(g13
g14
g23
g37
tp73
(dp74
g7
F-3.0
sg8
F0.0
sg9
F0.0
sg11
F-3.0
sg12
F12.600000000000001
sg27
F-3.57
sg28
F0.0
ss(g21
g2
g3
g42
tp75
(dp76
g7
I0
sg8
I0
sg9
I0
sg10
I0
sg11
I0
sg12
I0
ss(g1
g22
g3
g15
tp77
(dp78
g7
F0.0
sg8
F0.0
sg9
F0.0
sg10
F0.0
sg11
F-3.0
sg12
F-2.1
ss(g21
g14
g23
g47
tp79
(dp80
g7
I0
sg8
I0
sg9
I0
sg11
I0
sg12
I0
sg27
I0
sg28
I0
ss(g1
g14
g3
g4
tp81
(dp82
g7
F-14.994000000000002
sg8
F-12.600000000000001
sg9
F-5.000492418987109
sg10
F-6.6293198022899995
sg11
F-10.704017973795668
sg12
F-3.352947
ss(g13
g2
g3
g37
tp83
(dp84
g7
I0
sg8
I0
sg9
I0
sg10
I0
sg11
I0
sg12
I0
ss(g21
g14
g23
g37
tp85
(dp86
g7
F-3.17294403
sg8
F-0.857157
sg9
F-4.5642101066332135
sg11
F-0.14406237699000002
sg12
F-2.1
sg27
F-1.7492526673853894
sg28
F-0.0011729463145748972
ss(g21
g2
g23
g15
tp87
(dp88
g7
I0
sg8
I0
sg9
I0
sg11
I0
sg12
I0
sg27
I0
sg28
I0
ss(g1
g2
g23
g34
tp89
(dp90
g7
I0
sg8
I0
sg9
F0.0
sg11
F0.0
sg12
F0.0
sg27
I0
sg28
I0
ss(g1
g2
g3
g47
tp91
(dp92
g7
I0
sg8
I0
sg9
I0
sg10
I0
sg11
I0
sg12
I0
ss(g21
g22
g3
S'Endermite'
p93
tp94
(dp95
g7
I0
sg8
I0
sg9
I0
sg10
I0
sg11
I0
sg12
I0
ss(g13
g22
g3
g93
tp96
(dp97
g7
I0
sg8
I0
sg9
I0
sg10
I0
sg11
I0
sg12
I0
ss(g13
g14
g23
g34
tp98
(dp99
g7
F-6.0
sg8
F-6.0
sg9
F-6.0
sg11
F-3.0
sg12
F0.0
sg27
I0
sg28
I0
ss(g13
g14
g3
g47
tp100
(dp101
g7
I0
sg8
I0
sg9
I0
sg10
I0
sg11
I0
sg12
I0
ss(g13
g22
g3
g29
tp102
(dp103
g7
I0
sg8
I0
sg9
I0
sg10
I0
sg11
I0
sg12
I0
ss(g21
g14
g3
g47
tp104
(dp105
g7
I0
sg8
I0
sg9
I0
sg10
I0
sg11
I0
sg12
I0
ss(g21
g2
g3
S'Skeleton'
p106
tp107
(dp108
g7
I0
sg8
I0
sg9
I0
sg10
I0
sg11
I0
sg12
I0
ss(g1
g22
g23
g47
tp109
(dp110
g7
I0
sg8
I0
sg9
I0
sg11
I0
sg12
I0
sg27
I0
sg28
I0
ss(g21
g2
g23
g24
tp111
(dp112
g7
I0
sg8
I0
sg9
I0
sg11
I0
sg12
I0
sg27
I0
sg28
I0
ss(g1
g14
g3
g47
tp113
(dp114
g7
F45.0
sg8
F45.0
sg9
F33.66093565485
sg10
F1.8159123150000003
sg11
F0.0
sg12
F0.0
ss(g1
g22
g3
g50
tp115
(dp116
g7
I0
sg8
I0
sg9
I0
sg10
I0
sg11
I0
sg12
I0
ss(g13
g2
g3
g47
tp117
(dp118
g7
I0
sg8
I0
sg9
I0
sg10
I0
sg11
I0
sg12
I0
ss(g13
g14
g3
g37
tp119
(dp120
g7
I0
sg8
F0.0
sg9
I0
sg10
F4.3935598875
sg11
F2.6239500000000002
sg12
F15.899999999999999
ss(g13
g2
g3
g24
tp121
(dp122
g7
I0
sg8
I0
sg9
I0
sg10
I0
sg11
I0
sg12
I0
ss(g13
g14
g23
g47
tp123
(dp124
g7
I0
sg8
I0
sg9
I0
sg11
I0
sg12
I0
sg27
I0
sg28
I0
ss(g13
g22
g3
g106
tp125
(dp126
g7
I0
sg8
I0
sg9
I0
sg10
I0
sg11
I0
sg12
I0
ss(g1
g2
g3
g37
tp127
(dp128
g7
I0
sg8
I0
sg9
I0
sg10
I0
sg11
I0
sg12
I0
ss(g21
g2
g3
g37
tp129
(dp130
g7
I0
sg8
I0
sg9
I0
sg10
I0
sg11
I0
sg12
I0
ss(g1
g22
g23
g24
tp131
(dp132
g7
I0
sg8
I0
sg9
I0
sg11
I0
sg12
I0
sg27
I0
sg28
I0
ss(g21
g2
g23
g106
tp133
(dp134
g7
I0
sg8
I0
sg9
I0
sg11
I0
sg12
I0
sg27
I0
sg28
I0
ss(g13
g14
g23
g93
tp135
(dp136
g7
I0
sg8
I0
sg9
I0
sg11
I0
sg12
I0
sg27
I0
sg28
I0
ss(g21
g14
g3
g24
tp137
(dp138
g7
F0.0
sg8
I0
sg9
F0.0
sg10
F0.025588657500000132
sg11
F-4.3945282500000005
sg12
F0.0
ss(g13
g2
g3
g34
tp139
(dp140
g7
F-6.0
sg8
I0
sg9
I0
sg10
F-6.0
sg11
F-6.0
sg12
I0
ss(g21
g2
g23
g34
tp141
(dp142
g7
F-3.0
sg8
F-1.0290000000000001
sg9
F-3.0
sg11
F-3.0
sg12
F-6.0
sg27
F-2.4989999999999997
sg28
F-10.2
ss(g13
g14
g23
g50
tp143
(dp144
g7
I0
sg8
I0
sg9
F0.0
sg11
F0.0
sg12
F0.0
sg27
I0
sg28
I0
ss(g21
g22
g23
g93
tp145
(dp146
g7
I0
sg8
I0
sg9
I0
sg11
I0
sg12
I0
sg27
I0
sg28
I0
ss(g1
g14
g3
g34
tp147
(dp148
g7
F0.0
sg8
F0.0
sg9
F0.0
sg10
F0.0
sg11
F0.0
sg12
F0.0
ss(g13
g2
g3
g15
tp149
(dp150
g7
I0
sg8
I0
sg9
I0
sg10
I0
sg11
I0
sg12
I0
ss(g13
g2
g23
g18
tp151
(dp152
g7
I0
sg8
I0
sg9
I0
sg11
I0
sg12
I0
sg27
I0
sg28
I0
ss(g1
g22
g23
g34
tp153
(dp154
g7
I0
sg8
I0
sg9
I0
sg11
I0
sg12
I0
sg27
I0
sg28
I0
ss(g1
g14
g3
g15
tp155
(dp156
g7
F-18.0
sg8
F-21.42
sg9
F-32.85
sg10
F-7.35
sg11
F-2.52105
sg12
F-7.35
ss(g21
g14
g3
g34
tp157
(dp158
g7
F0.0
sg8
F11.989607971125752
sg9
F0.9079561575000001
sg10
F13.13733243253704
sg11
I0
sg12
F-2.1
ss(g1
g14
g23
g15
tp159
(dp160
g7
F0.0
sg8
F-17.85
sg9
F-15.0
sg11
F0.0
sg12
F0.0
sg27
F0.0
sg28
F0.0
ss(g13
g2
g3
g29
tp161
(dp162
g7
I0
sg8
I0
sg9
I0
sg10
I0
sg11
I0
sg12
I0
ss(g1
g22
g23
g15
tp163
(dp164
g7
F0.0
sg8
F0.0
sg9
F-3.0
sg11
F-3.0
sg12
F0.0
sg27
F-5.1
sg28
F0.0
ss(g13
g2
g23
g15
tp165
(dp166
g7
I0
sg8
I0
sg9
I0
sg11
I0
sg12
I0
sg27
I0
sg28
I0
ss(g21
g14
g3
g15
tp167
(dp168
g7
I0
sg8
I0
sg9
I0
sg10
I0
sg11
I0
sg12
I0
ss(g1
g14
g23
g34
tp169
(dp170
g7
F0.0
sg8
F0.0
sg9
F0.0
sg11
F0.0
sg12
F0.0
sg27
F0.0
sg28
F0.0
ss(g1
g14
g23
g4
tp171
(dp172
g7
F-4.90886586797445
sg8
F-5.142942000000001
sg9
F-18.858552806114343
sg11
F-24.53405401946239
sg12
F-0.367189684529829
sg27
F-2.4997096032368153
sg28
F-3.2162024646681218
ss(g13
g2
g23
g34
tp173
(dp174
g7
F0.0
sg8
I0
sg9
F0.0
sg11
F0.0
sg12
F0.0
sg27
F0.0
sg28
F0.0
ss(g13
g22
g23
g37
tp175
(dp176
g7
I0
sg8
I0
sg9
I0
sg11
I0
sg12
I0
sg27
I0
sg28
I0
ss(g1
g14
g3
g50
tp177
(dp178
g7
F0.0
sg8
F0.0
sg9
F0.0
sg10
F0.0
sg11
F0.0
sg12
F0.0
ss(g1
g22
g23
g42
tp179
(dp180
g7
I0
sg8
I0
sg9
I0
sg11
I0
sg12
I0
sg27
I0
sg28
I0
ss(g21
g2
g23
g47
tp181
(dp182
g7
I0
sg8
I0
sg9
I0
sg11
I0
sg12
I0
sg27
I0
sg28
I0
ss(g13
g22
g3
g50
tp183
(dp184
g7
I0
sg8
I0
sg9
I0
sg10
I0
sg11
I0
sg12
I0
ss(g1
g22
g3
g47
tp185
(dp186
g7
I0
sg8
I0
sg9
I0
sg10
I0
sg11
I0
sg12
I0
ss(g21
g22
g3
g47
tp187
(dp188
g7
I0
sg8
I0
sg9
I0
sg10
I0
sg11
I0
sg12
I0
ss(g13
g2
g23
g24
tp189
(dp190
g7
I0
sg8
I0
sg9
I0
sg11
I0
sg12
I0
sg27
I0
sg28
I0
ss(g21
g2
g3
g24
tp191
(dp192
g7
I0
sg8
I0
sg9
I0
sg10
I0
sg11
I0
sg12
I0
ss(g1
g14
g23
g18
tp193
(dp194
g7
F0.0
sg8
F0.0
sg9
F0.0
sg11
F0.0
sg12
F1.0376641800000002
sg27
F0.0
sg28
F0.0
ss(g13
g14
g23
g106
tp195
(dp196
g7
I0
sg8
I0
sg9
F3.0
sg11
F-4.2
sg12
F0.3000000000000007
sg27
I0
sg28
F-6.0
ss(g21
g14
g3
g50
tp197
(dp198
g7
F-4.022040593130001
sg8
F-4.362430689750001
sg9
F8.82
sg10
F16.708642676951918
sg11
F0.650225032631194
sg12
F0.22838123881650013
ss(g1
g22
g23
g29
tp199
(dp200
g7
I0
sg8
I0
sg9
I0
sg11
I0
sg12
I0
sg27
I0
sg28
I0
ss(g13
g14
g3
g18
tp201
(dp202
g7
I0
sg8
I0
sg9
I0
sg10
I0
sg11
I0
sg12
I0
ss(g21
g14
g3
g93
tp203
(dp204
g7
F0.11560523218736553
sg8
F-4.2
sg9
F3.7258718656471217
sg10
F0.0
sg11
F0.1936973136
sg12
F21.9158742
ss(g1
g22
g23
g93
tp205
(dp206
g7
I0
sg8
I0
sg9
I0
sg11
I0
sg12
I0
sg27
I0
sg28
I0
ss(g13
g2
g3
g93
tp207
(dp208
g7
I0
sg8
I0
sg9
I0
sg10
I0
sg11
I0
sg12
I0
ss(g13
g2
g23
g42
tp209
(dp210
g7
I0
sg8
I0
sg9
I0
sg11
I0
sg12
I0
sg27
I0
sg28
I0
ss(g21
g2
g3
g15
tp211
(dp212
g7
I0
sg8
I0
sg9
I0
sg10
I0
sg11
I0
sg12
I0
ss(g21
g2
g3
g50
tp213
(dp214
g7
I0
sg8
I0
sg9
I0
sg10
I0
sg11
I0
sg12
I0
ss(g1
g22
g3
g24
tp215
(dp216
g7
I0
sg8
I0
sg9
I0
sg10
I0
sg11
I0
sg12
I0
ss(g13
g14
g3
g106
tp217
(dp218
g7
F-13.139999999999999
sg8
F-7.05
sg9
F-1.05
sg10
F-4.2
sg11
F-1.5
sg12
F-1.2000000000000002
ss(g21
g14
g23
g34
tp219
(dp220
g7
F-7.321759814077289
sg8
F-6.0
sg9
F-13.139999999999999
sg11
F-6.0
sg12
F-3.0
sg27
F-14.71134059313
sg28
F0.0
ss(g21
g14
g3
g4
tp221
(dp222
g7
I0
sg8
I0
sg9
I0
sg10
I0
sg11
I0
sg12
I0
ss(g21
g2
g23
g42
tp223
(dp224
g7
I0
sg8
I0
sg9
I0
sg11
I0
sg12
I0
sg27
I0
sg28
I0
ss(g1
g2
g23
g93
tp225
(dp226
g7
I0
sg8
I0
sg9
I0
sg11
I0
sg12
I0
sg27
I0
sg28
I0
ss(g21
g22
g23
g42
tp227
(dp228
g7
I0
sg8
I0
sg9
I0
sg11
I0
sg12
I0
sg27
I0
sg28
I0
ss(g21
g22
g23
g47
tp229
(dp230
g7
I0
sg8
I0
sg9
I0
sg11
I0
sg12
I0
sg27
I0
sg28
I0
ss(g13
g22
g3
g47
tp231
(dp232
g7
I0
sg8
I0
sg9
I0
sg10
I0
sg11
I0
sg12
I0
ss(g13
g14
g23
g24
tp233
(dp234
g7
I0
sg8
I0
sg9
F0.0
sg11
I0
sg12
I0
sg27
I0
sg28
I0
ss(g1
g22
g23
g37
tp235
(dp236
g7
I0
sg8
I0
sg9
I0
sg11
I0
sg12
I0
sg27
I0
sg28
I0
ss(g1
g2
g23
g50
tp237
(dp238
g7
I0
sg8
I0
sg9
I0
sg11
I0
sg12
I0
sg27
I0
sg28
I0
ss(g21
g22
g3
g29
tp239
(dp240
g7
I0
sg8
I0
sg9
I0
sg10
I0
sg11
I0
sg12
I0
ss(g21
g22
g3
g50
tp241
(dp242
g7
I0
sg8
I0
sg9
I0
sg10
I0
sg11
I0
sg12
I0
ss(g13
g14
g23
g15
tp243
(dp244
g7
I0
sg8
I0
sg9
I0
sg11
I0
sg12
I0
sg27
I0
sg28
I0
ss(g21
g14
g23
g93
tp245
(dp246
g7
F0.0
sg8
F0.0
sg9
F-13.13950735441936
sg11
F0.0
sg12
F0.0
sg27
F0.0
sg28
F0.8643909678443289
ss(g21
g22
g23
g106
tp247
(dp248
g7
I0
sg8
I0
sg9
I0
sg11
I0
sg12
I0
sg27
I0
sg28
I0
ss(g1
g2
g3
g42
tp249
(dp250
g7
I0
sg8
I0
sg9
I0
sg10
I0
sg11
I0
sg12
I0
ss(g21
g14
g23
g50
tp251
(dp252
g7
F0.0
sg8
F0.0
sg9
F0.0
sg11
F0.0
sg12
F0.08720010936630004
sg27
F0.0
sg28
I0
ss(g21
g22
g23
g29
tp253
(dp254
g7
I0
sg8
I0
sg9
I0
sg11
I0
sg12
I0
sg27
I0
sg28
I0
ss(g21
g22
g23
g18
tp255
(dp256
g7
I0
sg8
I0
sg9
I0
sg11
I0
sg12
I0
sg27
I0
sg28
I0
ss(g13
g22
g23
g106
tp257
(dp258
g7
I0
sg8
I0
sg9
I0
sg11
I0
sg12
I0
sg27
I0
sg28
I0
ss(g13
g22
g3
g18
tp259
(dp260
g7
I0
sg8
I0
sg9
I0
sg10
I0
sg11
I0
sg12
I0
ss(g1
g22
g3
g93
tp261
(dp262
g7
I0
sg8
I0
sg9
I0
sg10
I0
sg11
I0
sg12
I0
ss(g1
g2
g23
g4
tp263
(dp264
g7
F-6.000468187755673
sg8
F-2.7441120062884465
sg9
F-1.843317177470948
sg11
F0.3456213344965896
sg12
F-11.964567254191103
sg27
F-2.1173038424999997
sg28
F-4.788795086877901
ss(g1
g14
g3
g24
tp265
(dp266
g7
F0.2117716944058386
sg8
F0.0
sg9
F0.0
sg10
F0.0
sg11
F0.3631824653523952
sg12
F0.0
ss(g21
g2
g23
g29
tp267
(dp268
g7
I0
sg8
I0
sg9
I0
sg11
I0
sg12
I0
sg27
I0
sg28
I0
ss(g21
g2
g3
g93
tp269
(dp270
g7
I0
sg8
I0
sg9
I0
sg10
I0
sg11
I0
sg12
I0
ss(g1
g2
g3
g29
tp271
(dp272
g7
I0
sg8
I0
sg9
I0
sg10
I0
sg11
I0
sg12
I0
ss(g1
g22
g3
g106
tp273
(dp274
g7
I0
sg8
I0
sg9
I0
sg10
I0
sg11
I0
sg12
I0
ss(g21
g22
g23
g4
tp275
(dp276
g7
I0
sg8
I0
sg9
I0
sg11
I0
sg12
I0
sg27
I0
sg28
I0
ss(g13
g14
g3
g42
tp277
(dp278
g7
I0
sg8
I0
sg9
I0
sg10
I0
sg11
I0
sg12
I0
ss(g13
g14
g3
g29
tp279
(dp280
g7
I0
sg8
F-9.0
sg9
F-9.0
sg10
I0
sg11
I0
sg12
I0
ss(g13
g22
g23
g15
tp281
(dp282
g7
I0
sg8
I0
sg9
I0
sg11
I0
sg12
I0
sg27
I0
sg28
I0
ss(g1
g22
g3
g4
tp283
(dp284
g7
F-3.0252600000000003
sg8
F-2.7992930699999996
sg9
F-2.4947271946410514
sg10
F-11.82
sg11
F-12.600000000000001
sg12
F-0.5042100000000002
ss(g13
g2
g3
g106
tp285
(dp286
g7
I0
sg8
I0
sg9
I0
sg10
I0
sg11
I0
sg12
I0
ss(g21
g22
g3
g106
tp287
(dp288
g7
I0
sg8
I0
sg9
I0
sg10
I0
sg11
I0
sg12
I0
ss(g1
g14
g3
g106
tp289
(dp290
g7
F0.0
sg8
F0.0
sg9
F0.0
sg10
F0.0
sg11
F0.0
sg12
F2.5714710000000003
ss(g1
g22
g23
g106
tp291
(dp292
g7
I0
sg8
I0
sg9
I0
sg11
I0
sg12
I0
sg27
I0
sg28
I0
ss(g21
g14
g23
g106
tp293
(dp294
g7
F0.0
sg8
F0.0
sg9
F0.0
sg11
F-10.198240580528136
sg12
F-1.05
sg27
F0.0
sg28
F0.0
ss(g1
g2
g3
g106
tp295
(dp296
g7
I0
sg8
I0
sg9
I0
sg10
I0
sg11
I0
sg12
I0
ss(g1
g2
g23
g106
tp297
(dp298
g7
I0
sg8
I0
sg9
I0
sg11
I0
sg12
I0
sg27
I0
sg28
I0
ss(g13
g14
g23
g18
tp299
(dp300
g7
I0
sg8
I0
sg9
I0
sg11
I0
sg12
I0
sg27
I0
sg28
I0
ss(g13
g22
g23
g50
tp301
(dp302
g7
I0
sg8
I0
sg9
I0
sg11
I0
sg12
I0
sg27
I0
sg28
I0
ss(g21
g22
g3
g37
tp303
(dp304
g7
I0
sg8
I0
sg9
I0
sg10
I0
sg11
I0
sg12
I0
ss(g1
g2
g3
g50
tp305
(dp306
g7
I0
sg8
I0
sg9
I0
sg10
I0
sg11
I0
sg12
I0
ss(g13
g2
g23
g4
tp307
(dp308
g7
I0
sg8
I0
sg9
I0
sg11
I0
sg12
I0
sg27
I0
sg28
I0
ss(g13
g22
g3
g4
tp309
(dp310
g7
I0
sg8
I0
sg9
I0
sg10
I0
sg11
I0
sg12
I0
ss(g21
g14
g23
g18
tp311
(dp312
g7
F0.0
sg8
F0.0
sg9
I0
sg11
F0.0
sg12
F0.0
sg27
F0.0
sg28
I0
ss(g1
g22
g3
g42
tp313
(dp314
g7
I0
sg8
I0
sg9
I0
sg10
I0
sg11
I0
sg12
I0
ss(g13
g14
g3
g4
tp315
(dp316
g7
I0
sg8
I0
sg9
I0
sg10
I0
sg11
I0
sg12
I0
ss(g21
g2
g3
g34
tp317
(dp318
g7
I0
sg8
F-12.332449179000001
sg9
F-5.49579
sg10
F0.5042100000000002
sg11
F0.0
sg12
F0.0
ss(g13
g22
g3
g24
tp319
(dp320
g7
I0
sg8
I0
sg9
I0
sg10
I0
sg11
I0
sg12
I0
ss(g1
g2
g23
g24
tp321
(dp322
g7
I0
sg8
I0
sg9
I0
sg11
I0
sg12
I0
sg27
I0
sg28
I0
ss(g21
g14
g23
g24
tp323
(dp324
g7
F0.0
sg8
F0.0
sg9
F0.0
sg11
F0.0
sg12
F0.0
sg27
F0.0
sg28
I0
ss(g1
g2
g23
g15
tp325
(dp326
g7
F1.4988695660350095
sg8
F-24.270405361622853
sg9
F-0.2613374895556121
sg11
F-0.3528906739136903
sg12
F-0.720299541398981
sg27
F-8.90631512082912
sg28
F-0.08474257470000005
ss(g1
g22
g3
g18
tp327
(dp328
g7
I0
sg8
I0
sg9
I0
sg10
I0
sg11
I0
sg12
I0
ss(g21
g14
g23
g42
tp329
(dp330
g7
I0
sg8
I0
sg9
I0
sg11
I0
sg12
F0.0
sg27
I0
sg28
I0
ss(g1
g14
g23
g50
tp331
(dp332
g7
F0.0
sg8
F0.0
sg9
F0.0
sg11
F0.0
sg12
F0.0
sg27
F0.0
sg28
F0.0
ss(g13
g2
g23
g50
tp333
(dp334
g7
I0
sg8
I0
sg9
I0
sg11
I0
sg12
I0
sg27
I0
sg28
I0
ss(g21
g14
g23
g29
tp335
(dp336
g7
F0.0
sg8
F0.0
sg9
F6.401262799917767e-05
sg11
F0.0
sg12
F-3.289240842304812
sg27
F0.0
sg28
F0.0
ss(g1
g14
g3
g93
tp337
(dp338
g7
F1.5730014950268925e-07
sg8
F3.210207132707944e-07
sg9
F3.210207132707944e-07
sg10
F0.0
sg11
F0.0
sg12
F0.0
ss(g1
g14
g23
g29
tp339
(dp340
g7
F0.0
sg8
F0.0
sg9
F0.0
sg11
F0.0
sg12
F0.0
sg27
F0.0
sg28
F0.0
ss(g13
g14
g3
g24
tp341
(dp342
g7
I0
sg8
I0
sg9
I0
sg10
I0
sg11
F22.5
sg12
F0.0
ss(g13
g2
g23
g29
tp343
(dp344
g7
I0
sg8
I0
sg9
I0
sg11
I0
sg12
I0
sg27
I0
sg28
I0
ss(g21
g22
g23
g15
tp345
(dp346
g7
I0
sg8
I0
sg9
I0
sg11
I0
sg12
I0
sg27
I0
sg28
I0
ss(g1
g22
g23
g50
tp347
(dp348
g7
I0
sg8
I0
sg9
I0
sg11
I0
sg12
I0
sg27
I0
sg28
I0
ss(g13
g22
g3
g34
tp349
(dp350
g7
I0
sg8
I0
sg9
I0
sg10
I0
sg11
I0
sg12
I0
ss(g13
g22
g23
g42
tp351
(dp352
g7
I0
sg8
I0
sg9
I0
sg11
I0
sg12
I0
sg27
I0
sg28
I0
ss(g21
g14
g3
g106
tp353
(dp354
g7
F2.8811287482052137
sg8
F1.4539525662921002
sg9
F0.8117347126500007
sg10
F1.6840704240859754
sg11
F3.0
sg12
F0.0
ss(g13
g14
g3
g50
tp355
(dp356
g7
F0.0
sg8
F0.0
sg9
F38.25
sg10
F16.901325
sg11
F0.0
sg12
I0
ss(g21
g22
g3
g18
tp357
(dp358
g7
I0
sg8
I0
sg9
I0
sg10
I0
sg11
I0
sg12
I0
ss(g21
g22
g3
g4
tp359
(dp360
g7
I0
sg8
I0
sg9
I0
sg10
I0
sg11
I0
sg12
I0
ss(g13
g22
g3
g42
tp361
(dp362
g7
I0
sg8
I0
sg9
I0
sg10
I0
sg11
I0
sg12
I0
ss(g13
g2
g3
g4
tp363
(dp364
g7
I0
sg8
I0
sg9
I0
sg10
I0
sg11
I0
sg12
I0
ss(g21
g2
g3
g47
tp365
(dp366
g7
I0
sg8
I0
sg9
I0
sg10
I0
sg11
I0
sg12
I0
ss(g13
g22
g23
g29
tp367
(dp368
g7
I0
sg8
I0
sg9
I0
sg11
I0
sg12
I0
sg27
I0
sg28
I0
ss(g21
g22
g3
g24
tp369
(dp370
g7
I0
sg8
I0
sg9
I0
sg10
I0
sg11
I0
sg12
I0
ss(g1
g22
g23
g4
tp371
(dp372
g7
F0.0
sg8
F0.0
sg9
F0.0
sg11
F0.0
sg12
F0.0
sg27
F-1.4700000000000002
sg28
F0.0
ss(g21
g14
g23
g4
tp373
(dp374
g7
I0
sg8
I0
sg9
I0
sg11
I0
sg12
I0
sg27
I0
sg28
I0
ss(g1
g14
g23
g106
tp375
(dp376
g7
F0.0
sg8
F0.003419668555611945
sg9
F0.1478447897774876
sg11
F0.0
sg12
F1.5419414447623883
sg27
F0.00028162441012943276
sg28
F0.0
ss(g1
g22
g3
g37
tp377
(dp378
g7
I0
sg8
I0
sg9
I0
sg10
I0
sg11
I0
sg12
I0
ss(g1
g2
g3
g93
tp379
(dp380
g7
I0
sg8
I0
sg9
I0
sg10
I0
sg11
I0
sg12
I0
ss(g1
g14
g3
g37
tp381
(dp382
g7
F0.0
sg8
F0.0
sg9
F0.0
sg10
F0.0
sg11
F0.0
sg12
F0.0
ss(g13
g14
g23
g29
tp383
(dp384
g7
I0
sg8
F-9.0
sg9
I0
sg11
F0.0
sg12
F8.280000000000001
sg27
F-9.0
sg28
F-9.0
ss(g21
g14
g3
g42
tp385
(dp386
g7
F0.6078508629137216
sg8
F0.32744529974282965
sg9
F0.0
sg10
F1.4993980154999997
sg11
F0.36000546352154994
sg12
F0.0
ss(g1
g14
g23
g93
tp387
(dp388
g7
F0.0
sg8
F0.0
sg9
F0.0
sg11
F0.0
sg12
F0.0
sg27
F0.0
sg28
F0.0
ss(g21
g22
g3
g15
tp389
(dp390
g7
I0
sg8
I0
sg9
I0
sg10
I0
sg11
I0
sg12
I0
ss(g1
g14
g23
g42
tp391
(dp392
g7
F0.0
sg8
F0.1719088493222125
sg9
F0.0005713032783885676
sg11
F0.24342719039773775
sg12
F0.0
sg27
F0.0
sg28
F0.1766681068376149
ss(g21
g2
g23
g93
tp393
(dp394
g7
I0
sg8
I0
sg9
I0
sg11
I0
sg12
I0
sg27
I0
sg28
I0
ss(g13
g22
g23
g47
tp395
(dp396
g7
I0
sg8
I0
sg9
I0
sg11
I0
sg12
I0
sg27
I0
sg28
I0
ss(g21
g2
g3
g29
tp397
(dp398
g7
I0
sg8
I0
sg9
I0
sg10
I0
sg11
I0
sg12
I0
ss(g21
g2
g23
g4
tp399
(dp400
g7
I0
sg8
I0
sg9
I0
sg11
I0
sg12
I0
sg27
I0
sg28
I0
ss(g13
g22
g23
g4
tp401
(dp402
g7
I0
sg8
I0
sg9
I0
sg11
I0
sg12
I0
sg27
I0
sg28
I0
ss(g1
g14
g3
g18
tp403
(dp404
g7
F0.0
sg8
F0.0
sg9
F6.606606279112953e-07
sg10
F3.2372370767653473e-07
sg11
F0.0
sg12
F0.0
ss(g21
g14
g3
g18
tp405
(dp406
g7
F0.0
sg8
F25.1471025
sg9
F0.0
sg10
F25.1471025
sg11
F27.90225
sg12
F0.0
ss(g21
g14
g3
g29
tp407
(dp408
g7
F0.6602838548095846
sg8
F0.340946802
sg9
F0.3775659496479443
sg10
F13.518234617466682
sg11
F0.2865146450607001
sg12
F0.41789710084667864
ss(g13
g2
g23
g106
tp409
(dp410
g7
I0
sg8
I0
sg9
I0
sg11
I0
sg12
I0
sg27
I0
sg28
I0
ss(g13
g22
g3
g37
tp411
(dp412
g7
I0
sg8
I0
sg9
I0
sg10
I0
sg11
I0
sg12
I0
ss(g1
g14
g3
g42
tp413
(dp414
g7
F0.0
sg8
F0.0
sg9
F0.0
sg10
F0.0
sg11
F12.171599999999998
sg12
F8.520119999999999
ss(g13
g14
g23
g42
tp415
(dp416
g7
I0
sg8
I0
sg9
I0
sg11
I0
sg12
I0
sg27
I0
sg28
I0
ss(g13
g2
g23
g93
tp417
(dp418
g7
I0
sg8
I0
sg9
I0
sg11
I0
sg12
I0
sg27
I0
sg28
I0
ss(g13
g2
g23
g47
tp419
(dp420
g7
I0
sg8
I0
sg9
I0
sg11
I0
sg12
I0
sg27
I0
sg28
I0
ss(g21
g22
g23
g50
tp421
(dp422
g7
I0
sg8
I0
sg9
I0
sg11
I0
sg12
I0
sg27
I0
sg28
I0
ss(g13
g14
g23
g4
tp423
(dp424
g7
I0
sg8
I0
sg9
I0
sg11
I0
sg12
I0
sg27
I0
sg28
I0
ss(g1
g14
g23
g47
tp425
(dp426
g7
F0.0
sg8
F0.0
sg9
F0.0
sg11
F0.0
sg12
F0.0
sg27
F0.0
sg28
F0.0
ss(g21
g14
g23
g15
tp427
(dp428
g7
I0
sg8
I0
sg9
I0
sg11
I0
sg12
I0
sg27
I0
sg28
I0
ss(g21
g2
g3
g4
tp429
(dp430
g7
I0
sg8
I0
sg9
I0
sg10
I0
sg11
I0
sg12
I0
ss(g13
g14
g3
g93
tp431
(dp432
g7
F0.0
sg8
I0
sg9
I0
sg10
I0
sg11
I0
sg12
I0
ss(g21
g22
g23
g34
tp433
(dp434
g7
F0.0
sg8
F-3.0
sg9
F-3.0
sg11
F0.0
sg12
F-3.0
sg27
F0.0
sg28
F0.0
ss(g13
g2
g3
g18
tp435
(dp436
g7
I0
sg8
I0
sg9
I0
sg10
I0
sg11
I0
sg12
I0
ss(g1
g2
g23
g42
tp437
(dp438
g7
I0
sg8
I0
sg9
I0
sg11
I0
sg12
I0
sg27
I0
sg28
I0
ss(g13
g2
g3
g42
tp439
(dp440
g7
I0
sg8
I0
sg9
I0
sg10
I0
sg11
I0
sg12
I0
ss(g21
g14
g3
g37
tp441
(dp442
g7
F0.0
sg8
F0.42354338835060007
sg9
F-5.5135852282674005
sg10
F0.0
sg11
F3.0
sg12
F2.3542277241
ss(g1
g14
g23
g24
tp443
(dp444
g7
F0.0
sg8
F0.1744002187326001
sg9
F0.0
sg11
F0.0
sg12
F0.3559188137400001
sg27
F0.0
sg28
F0.5084554482000001
ss(g1
g2
g23
g18
tp445
(dp446
g7
I0
sg8
I0
sg9
I0
sg11
I0
sg12
I0
sg27
I0
sg28
I0
ss(g1
g2
g23
g29
tp447
(dp448
g7
I0
sg8
I0
sg9
I0
sg11
I0
sg12
I0
sg27
I0
sg28
I0
ss(g13
g22
g23
g93
tp449
(dp450
g7
I0
sg8
I0
sg9
I0
sg11
I0
sg12
I0
sg27
I0
sg28
I0
ss(g1
g22
g23
g18
tp451
(dp452
g7
I0
sg8
I0
sg9
I0
sg11
I0
sg12
I0
sg27
I0
sg28
I0
ss(g13
g2
g3
g50
tp453
(dp454
g7
I0
sg8
I0
sg9
I0
sg10
I0
sg11
I0
sg12
I0
ss(g13
g22
g23
g18
tp455
(dp456
g7
I0
sg8
I0
sg9
I0
sg11
I0
sg12
I0
sg27
I0
sg28
I0
ss(g1
g14
g3
g29
tp457
(dp458
g7
F0.027516870998075253
sg8
F0.0
sg9
F0.0
sg10
F0.005503465005289347
sg11
F0.0
sg12
F0.0
ss(g13
g22
g3
g15
tp459
(dp460
g7
I0
sg8
I0
sg9
I0
sg10
I0
sg11
I0
sg12
I0
ss.