(dp0
(S'Far'
p1
S'Med'
p2
S'sword'
p3
S'Witch'
p4
tp5
(dp6
S'strafe 1'
p7
F2.6999999999999997
sS'strafe 0'
p8
F0.0
sS'strafe -1'
p9
F-10.0
sS'attack 1'
p10
F-3.0
sS'move 1'
p11
F0.0
sS'move 0'
p12
F-3.0
sS'switch'
p13
F9.0
ss(S'Close'
p14
S'Hi'
p15
g3
S'Blaze'
p16
tp17
(dp18
g7
I0
sg8
I0
sg9
F0.0
sg10
F5.3999999999999995
sg11
F0.0
sg12
F18.0
sg13
F0.0
ss(g1
g2
g3
S'Creeper'
p19
tp20
(dp21
g7
I0
sg8
I0
sg9
I0
sg10
I0
sg11
I0
sg12
I0
sg13
I0
ss(S'Melee'
p22
S'Low'
p23
S'bow'
p24
S'Wolf'
p25
tp26
(dp27
g7
I0
sg8
F0.0
sg9
F0.0
sg11
F0.0
sg12
F0.0
sg13
F0.0
sS'use 0'
p28
F0.0
sS'use 1'
p29
F10.0
ss(g1
g23
g3
S'Zombie'
p30
tp31
(dp32
g7
F0.0
sg8
I0
sg9
F0.0
sg10
F0.0
sg11
F0.0
sg12
F0.0
sg13
F0.0
ss(g1
g2
g3
g16
tp33
(dp34
g7
F-15.0
sg8
F0.0
sg9
F-4.5
sg10
F0.0
sg11
F0.0
sg12
F-50.0
sg13
F-0.8999999999999999
ss(g14
g15
g3
S'Cave Spider'
p35
tp36
(dp37
g7
F0.0
sg8
F0.0
sg9
F0.0
sg10
F0.0
sg11
F0.0
sg12
F0.0
sg13
F0.0
ss(g22
g23
g24
S'Silverfish'
p38
tp39
(dp40
g7
I0
sg8
I0
sg9
I0
sg11
I0
sg12
I0
sg13
I0
sg28
I0
sg29
I0
ss(g14
g23
g24
g25
tp41
(dp42
g7
I0
sg8
I0
sg9
I0
sg11
I0
sg12
I0
sg13
I0
sg28
I0
sg29
I0
ss(g22
g23
g3
S'Zombie Pigman'
p43
tp44
(dp45
g7
F0.0
sg8
F0.0
sg9
F0.0
sg10
F0.0
sg11
F0.0
sg12
F0.0
sg13
F-1.7999999999999998
ss(g1
g2
g3
g35
tp46
(dp47
g7
F-3.0
sg8
F0.0
sg9
F-10.0
sg10
F-3.0
sg11
F-0.8999999999999999
sg12
F-3.0
sg13
F3.0
ss(g1
g2
g24
S'Ghast'
p48
tp49
(dp50
g7
F-3.0
sg8
F-0.8999999999999999
sg9
F-13.0
sg11
F-10.9
sg12
F0.0
sg13
F-10.9
sg28
F-3.0
sg29
F-10.9
ss(g22
g2
g24
S'Spider'
p51
tp52
(dp53
g7
F0.0
sg8
F0.0
sg9
F0.0
sg11
F0.0
sg12
F0.0
sg13
F0.0
sg28
F0.0
sg29
F0.0
ss(g22
g2
g24
g38
tp54
(dp55
g7
F0.0
sg8
I0
sg9
I0
sg11
F0.0
sg12
F0.0
sg13
F0.0
sg28
F0.0
sg29
F0.0
ss(g1
g2
g3
g25
tp56
(dp57
g7
F0.0
sg8
F0.0
sg9
F0.0
sg10
F0.0
sg11
F0.0
sg12
F0.0
sg13
F0.0
ss(g1
g15
g24
g38
tp58
(dp59
g7
F0.0
sg8
F0.0
sg9
F0.0
sg11
F0.0
sg12
F0.0
sg13
F0.0
sg28
F0.0
sg29
F0.0
ss(g14
g2
g24
g38
tp60
(dp61
g7
F0.0
sg8
F0.0
sg9
I0
sg11
I0
sg12
I0
sg13
I0
sg28
I0
sg29
I0
ss(g22
g23
g3
g35
tp62
(dp63
g7
F-0.8999999999999999
sg8
F0.0
sg9
F-10.0
sg10
F0.0
sg11
F-3.0
sg12
F0.0
sg13
F-10.0
ss(g1
g23
g3
g35
tp64
(dp65
g7
F0.0
sg8
F-10.0
sg9
F0.0
sg10
F-3.0
sg11
F0.0
sg12
F-0.8999999999999999
sg13
F-0.8999999999999999
ss(g1
g2
g24
g38
tp66
(dp67
g7
I0
sg8
I0
sg9
I0
sg11
I0
sg12
I0
sg13
I0
sg28
I0
sg29
I0
ss(g22
g2
g24
g19
tp68
(dp69
g7
I0
sg8
I0
sg9
I0
sg11
I0
sg12
I0
sg13
I0
sg28
I0
sg29
I0
ss(g22
g2
g3
g19
tp70
(dp71
g7
I0
sg8
I0
sg9
I0
sg10
I0
sg11
I0
sg12
I0
sg13
I0
ss(g14
g15
g24
g38
tp72
(dp73
g7
F0.0
sg8
F0.0
sg9
F0.0
sg11
F0.0
sg12
F0.0
sg13
F0.0
sg28
F0.0
sg29
F0.0
ss(g22
g2
g3
g43
tp74
(dp75
g7
F0.0
sg8
F0.0
sg9
F0.0
sg10
F0.0
sg11
F0.0
sg12
F0.0
sg13
F0.0
ss(g1
g23
g3
g16
tp76
(dp77
g7
F0.0
sg8
F0.0
sg9
F0.0
sg10
F-10.9
sg11
F0.0
sg12
F0.0
sg13
F0.0
ss(g22
g15
g24
g48
tp78
(dp79
g7
F-60.0
sg8
F0.0
sg9
F-60.0
sg11
F0.8999999999999999
sg12
F0.0
sg13
F0.0
sg28
I0
sg29
F0.0
ss(g1
g15
g3
g4
tp80
(dp81
g7
F0.0
sg8
F0.0
sg9
F0.0
sg10
F-5.3999999999999995
sg11
F0.0
sg12
F0.0
sg13
F0.0
ss(g14
g2
g3
g38
tp82
(dp83
g7
I0
sg8
F45.0
sg9
I0
sg10
I0
sg11
I0
sg12
F0.0
sg13
F0.0
ss(g1
g15
g3
g38
tp84
(dp85
g7
F0.0
sg8
F0.0
sg9
F0.0
sg10
F0.0
sg11
F0.0
sg12
F0.0
sg13
F0.0
ss(g22
g2
g24
g16
tp86
(dp87
g7
F0.0
sg8
F0.0
sg9
F0.0
sg11
F0.0
sg12
F0.0
sg13
F-10.0
sg28
F0.0
sg29
F0.0
ss(g1
g2
g24
g35
tp88
(dp89
g7
F0.0
sg8
F-10.0
sg9
F0.0
sg11
F-3.0
sg12
F-0.8999999999999999
sg13
F9.1
sg28
F0.0
sg29
F-3.0
ss(g1
g2
g3
g48
tp90
(dp91
g7
F-3.9
sg8
F-3.0
sg9
F-10.9
sg10
F0.0
sg11
F-13.0
sg12
F0.0
sg13
F0.0
ss(g22
g23
g3
S'Endermite'
p92
tp93
(dp94
g7
F0.0
sg8
F-1.7999999999999998
sg9
F0.0
sg10
F0.0
sg11
F0.0
sg12
F0.0
sg13
F0.0
ss(g14
g23
g3
g92
tp95
(dp96
g7
F-6.0
sg8
F0.0
sg9
F-20.0
sg10
F-6.0
sg11
F0.0
sg12
F0.0
sg13
I0
ss(g14
g15
g24
g35
tp97
(dp98
g7
F-10.0
sg8
F0.0
sg9
F0.0
sg11
F0.0
sg12
F0.0
sg13
F0.0
sg28
F-20.0
sg29
F0.0
ss(g14
g15
g3
g48
tp99
(dp100
g7
I0
sg8
I0
sg9
I0
sg10
I0
sg11
I0
sg12
I0
sg13
I0
ss(g14
g2
g3
g30
tp101
(dp102
g7
F-17.58000054
sg8
F-30.0
sg9
F-2.6999999999999997
sg10
F0.0
sg11
F0.0
sg12
F0.0
sg13
F0.0
ss(g22
g15
g3
g48
tp103
(dp104
g7
F-60.0
sg8
F0.0
sg9
F0.0
sg10
F6.75
sg11
F0.0
sg12
F0.0
sg13
F22.5
ss(g22
g2
g3
S'Skeleton'
p105
tp106
(dp107
g7
F0.0
sg8
F0.0
sg9
F0.0
sg10
F2.6999999999999997
sg11
F0.0
sg12
F0.0
sg13
F0.0
ss(g1
g23
g24
g48
tp108
(dp109
g7
F-3.9
sg8
F-9.85
sg9
F-13.0
sg11
F-10.9
sg12
F-10.0
sg13
F-10.9
sg28
F-13.0
sg29
F-10.0
ss(g22
g2
g24
g25
tp110
(dp111
g7
F0.0
sg8
F0.0
sg9
F0.0
sg11
F0.0
sg12
F0.0
sg13
F0.0
sg28
F0.0
sg29
F0.0
ss(g1
g15
g3
g48
tp112
(dp113
g7
F-3.0
sg8
F0.0
sg9
F-10.0
sg10
F-6.3
sg11
F0.0
sg12
F-21.0
sg13
F0.0
ss(g1
g23
g3
g51
tp114
(dp115
g7
F0.0
sg8
F10.0
sg9
F3.0
sg10
F0.8999999999999999
sg11
I0
sg12
F0.0
sg13
I0
ss(g14
g2
g3
g48
tp116
(dp117
g7
I0
sg8
I0
sg9
I0
sg10
I0
sg11
I0
sg12
I0
sg13
I0
ss(g14
g15
g3
g38
tp118
(dp119
g7
F-3.0
sg8
F-10.0
sg9
F0.0
sg10
F2.6999999999999993
sg11
F-3.0
sg12
F0.0
sg13
F0.0
ss(g14
g2
g3
g25
tp120
(dp121
g7
F0.0
sg8
F-12.0
sg9
F0.0
sg10
F0.0
sg11
F0.0
sg12
F0.0
sg13
F0.0
ss(g14
g15
g24
g48
tp122
(dp123
g7
I0
sg8
I0
sg9
I0
sg11
I0
sg12
I0
sg13
I0
sg28
I0
sg29
I0
ss(g14
g23
g3
g105
tp124
(dp125
g7
F0.0
sg8
F0.0
sg9
F0.0
sg10
F0.0
sg11
F0.0
sg12
F0.0
sg13
F-6.0
ss(g1
g2
g3
g38
tp126
(dp127
g7
I0
sg8
I0
sg9
I0
sg10
I0
sg11
I0
sg12
I0
sg13
I0
ss(g22
g2
g3
g38
tp128
(dp129
g7
I0
sg8
I0
sg9
I0
sg10
F3.0
sg11
F0.8999999999999999
sg12
F10.0
sg13
I0
ss(g1
g23
g24
g25
tp130
(dp131
g7
F0.0
sg8
F0.0
sg9
F0.0
sg11
F0.0
sg12
F0.0
sg13
F0.0
sg28
F0.0
sg29
F0.0
ss(g22
g2
g24
g105
tp132
(dp133
g7
F0.0
sg8
F0.0
sg9
F-1.7999999999999998
sg11
F0.0
sg12
F0.0
sg13
F0.0
sg28
F-1.7999999999999998
sg29
F0.0
ss(g14
g15
g24
g92
tp134
(dp135
g7
F-6.0
sg8
F0.0
sg9
F0.0
sg11
F-20.0
sg12
F0.0
sg13
F-20.0
sg28
F0.0
sg29
F0.0
ss(g22
g15
g3
g25
tp136
(dp137
g7
F0.0
sg8
F0.0
sg9
F0.0
sg10
F0.0
sg11
F0.0
sg12
F0.0
sg13
F0.0
ss(g14
g2
g3
g35
tp138
(dp139
g7
F22.5
sg8
F0.0
sg9
F0.0
sg10
F6.75
sg11
F-10.0
sg12
F0.0
sg13
F0.0
ss(g22
g2
g24
g35
tp140
(dp141
g7
F-0.8999999999999999
sg8
F-0.8999999999999999
sg9
F0.0
sg11
F0.0
sg12
F-3.0
sg13
F0.0
sg28
F0.0
sg29
F-1.8000000000000007
ss(g14
g2
g24
g43
tp142
(dp143
g7
F13.800001049999999
sg8
F0.0
sg9
F4.140000314999999
sg11
F-15.0
sg12
F0.0
sg13
F0.0
sg28
F0.0
sg29
F-15.0
ss(g22
g23
g24
g92
tp144
(dp145
g7
F0.0
sg8
F0.0
sg9
F0.0
sg11
F0.0
sg12
F0.0
sg13
F0.0
sg28
F0.0
sg29
F0.0
ss(g1
g15
g3
g35
tp146
(dp147
g7
F0.0
sg8
F0.0
sg9
F0.0
sg10
F0.0
sg11
F0.0
sg12
F0.0
sg13
F0.0
ss(g14
g2
g3
g16
tp148
(dp149
g7
F-5.3999999999999995
sg8
F0.0
sg9
I0
sg10
I0
sg11
F1.3500000000000014
sg12
F0.0
sg13
F4.5
ss(g14
g23
g3
g30
tp150
(dp151
g7
F-30.0
sg8
F0.9000000000000004
sg9
F-2.6999999999999997
sg10
F0.0
sg11
F0.0
sg12
F0.0
sg13
F-10.0
ss(g1
g23
g24
g35
tp152
(dp153
g7
F0.0
sg8
F0.0
sg9
F0.0
sg11
F0.0
sg12
F0.0
sg13
F0.0
sg28
F0.0
sg29
F0.0
ss(g1
g15
g3
g16
tp154
(dp155
g7
F-50.0
sg8
F-50.0
sg9
F-15.0
sg10
F-15.0
sg11
F-4.5
sg12
F0.0
sg13
F-10.0
ss(g22
g15
g3
g35
tp156
(dp157
g7
F0.0
sg8
F-3.0
sg9
F0.0
sg10
F-1.7999999999999998
sg11
F0.0
sg12
F0.0
sg13
F0.0
ss(g1
g15
g24
g16
tp158
(dp159
g7
F0.0
sg8
F0.0
sg9
F0.0
sg11
F0.0
sg12
F0.0
sg13
F0.0
sg28
F0.0
sg29
F0.0
ss(g1
g23
g24
g16
tp160
(dp161
g7
F-10.0
sg8
F0.0
sg9
F0.0
sg11
F0.0
sg12
F0.0
sg13
F-10.0
sg28
F0.0
sg29
F0.0
ss(g14
g2
g24
g16
tp162
(dp163
g7
I0
sg8
I0
sg9
F0.0
sg11
I0
sg12
I0
sg13
F0.0
sg28
I0
sg29
I0
ss(g22
g15
g3
g16
tp164
(dp165
g7
F0.0
sg8
F0.0
sg9
F0.0
sg10
F0.0
sg11
F-10.0
sg12
F0.0
sg13
F0.0
ss(g1
g15
g24
g35
tp166
(dp167
g7
F0.0
sg8
F0.0
sg9
F-0.8999999999999999
sg11
F0.0
sg12
F0.0
sg13
F0.0
sg28
F-10.0
sg29
F0.0
ss(g1
g15
g24
g4
tp168
(dp169
g7
F0.0
sg8
F0.0
sg9
F0.0
sg11
F0.0
sg12
F0.0
sg13
F0.0
sg28
F0.0
sg29
F-18.0
ss(g14
g2
g24
g35
tp170
(dp171
g7
F-6.0
sg8
F-6.0
sg9
F-16.0
sg11
F0.0
sg12
F-20.0
sg13
F-10.0
sg28
F0.0
sg29
F-10.0
ss(g14
g23
g24
g38
tp172
(dp173
g7
I0
sg8
I0
sg9
I0
sg11
I0
sg12
I0
sg13
I0
sg28
I0
sg29
I0
ss(g1
g15
g3
g51
tp174
(dp175
g7
F0.0
sg8
F0.0
sg9
F0.0
sg10
F0.0
sg11
F0.0
sg12
F0.0
sg13
F0.0
ss(g1
g23
g24
g43
tp176
(dp177
g7
F0.0
sg8
F0.0
sg9
F0.0
sg11
F0.0
sg12
F0.0
sg13
F0.0
sg28
F0.0
sg29
F0.0
ss(g22
g2
g24
g48
tp178
(dp179
g7
F0.0
sg8
F0.0
sg9
F0.0
sg11
F0.0
sg12
F0.0
sg13
F0.0
sg28
F0.0
sg29
F0.0
ss(g14
g2
g24
g25
tp180
(dp181
g7
F0.0
sg8
F0.0
sg9
F0.0
sg11
F0.0
sg12
F-3.5999999999999996
sg13
F0.0
sg28
F-40.0
sg29
F-3.5999999999999996
ss(g1
g23
g3
g48
tp182
(dp183
g7
F-10.9
sg8
F0.0
sg9
F0.0
sg10
F-10.9
sg11
F0.0
sg12
F0.0
sg13
F-3.0
ss(g22
g23
g3
g48
tp184
(dp185
g7
F21.6
sg8
I0
sg9
F71.1
sg10
F-10.0
sg11
F-13.9
sg12
I0
sg13
I0
ss(g22
g2
g3
g25
tp186
(dp187
g7
F0.0
sg8
F0.0
sg9
F0.0
sg10
F0.0
sg11
F0.0
sg12
F0.0
sg13
F0.0
ss(g1
g15
g24
g19
tp188
(dp189
g7
F0.0
sg8
F0.0
sg9
F0.0
sg11
F0.0
sg12
F0.0
sg13
F0.0
sg28
F0.0
sg29
F0.0
ss(g22
g15
g3
g51
tp190
(dp191
g7
F0.0
sg8
F0.0
sg9
F4.5
sg10
F0.0
sg11
F0.0
sg12
F0.0
sg13
F0.0
ss(g1
g23
g24
g30
tp192
(dp193
g7
F0.0
sg8
F0.0
sg9
F0.0
sg11
F0.0
sg12
F0.0
sg13
F0.0
sg28
F0.0
sg29
F0.0
ss(g14
g15
g3
g19
tp194
(dp195
g7
F0.0
sg8
F6.75
sg9
F0.0
sg10
F0.0
sg11
F0.0
sg12
F0.0
sg13
F22.5
ss(g22
g15
g3
g92
tp196
(dp197
g7
F0.0
sg8
F0.0
sg9
F0.0
sg10
F0.0
sg11
F0.0
sg12
F0.0
sg13
F0.0
ss(g1
g23
g24
g92
tp198
(dp199
g7
F0.0
sg8
F0.0
sg9
F0.0
sg11
I0
sg12
F0.0
sg13
F0.0
sg28
F0.8999999999999999
sg29
F0.0
ss(g14
g2
g3
g92
tp200
(dp201
g7
F0.0
sg8
F-20.0
sg9
F-6.0
sg10
F-1.7999999999999998
sg11
F-6.0
sg12
F0.0
sg13
F-1.7999999999999998
ss(g22
g2
g3
g16
tp202
(dp203
g7
F0.0
sg8
F0.0
sg9
F-4.5
sg10
F0.0
sg11
F0.0
sg12
F0.0
sg13
F0.0
ss(g22
g2
g3
g51
tp204
(dp205
g7
F0.0
sg8
F0.0
sg9
F0.0
sg10
F0.0
sg11
F-12.5
sg12
F0.0
sg13
F0.0
ss(g1
g23
g3
g25
tp206
(dp207
g7
F0.0
sg8
F0.0
sg9
F0.0
sg10
F0.0
sg11
F0.0
sg12
F0.0
sg13
F0.0
ss(g14
g15
g3
g105
tp208
(dp209
g7
F0.0
sg8
F0.0
sg9
F0.0
sg10
F13.5
sg11
F45.0
sg12
F0.0
sg13
F-1.7999999999999998
ss(g22
g15
g24
g35
tp210
(dp211
g7
F3.0
sg8
F0.0
sg9
F0.0
sg11
F0.0
sg12
F0.0
sg13
F0.0
sg28
F0.0
sg29
F0.8999999999999986
ss(g22
g15
g3
g4
tp212
(dp213
g7
F0.0
sg8
F22.5
sg9
F22.5
sg10
F75.0
sg11
F0.0
sg12
F0.0
sg13
F0.0
ss(g1
g2
g24
g92
tp214
(dp215
g7
F0.0
sg8
F0.0
sg9
F0.0
sg11
F0.0
sg12
F3.0
sg13
F0.0
sg28
F0.0
sg29
F0.0
ss(g22
g23
g24
g43
tp216
(dp217
g7
F0.0
sg8
F0.0
sg9
F0.0
sg11
F0.0
sg12
F0.0
sg13
F-6.0
sg28
F0.0
sg29
F0.0
ss(g14
g2
g24
g19
tp218
(dp219
g7
I0
sg8
I0
sg9
I0
sg11
I0
sg12
I0
sg13
I0
sg28
I0
sg29
I0
ss(g22
g23
g24
g48
tp220
(dp221
g7
I0
sg8
I0
sg9
I0
sg11
I0
sg12
I0
sg13
I0
sg28
I0
sg29
I0
ss(g14
g23
g3
g48
tp222
(dp223
g7
I0
sg8
I0
sg9
I0
sg10
I0
sg11
I0
sg12
I0
sg13
I0
ss(g14
g15
g24
g25
tp224
(dp225
g7
F0.0
sg8
F0.0
sg9
F0.0
sg11
F0.0
sg12
F0.0
sg13
F0.0
sg28
F0.0
sg29
F0.0
ss(g1
g23
g24
g38
tp226
(dp227
g7
I0
sg8
I0
sg9
I0
sg11
I0
sg12
I0
sg13
I0
sg28
I0
sg29
I0
ss(g1
g2
g24
g51
tp228
(dp229
g7
F0.0
sg8
F0.0
sg9
F0.0
sg11
F0.0
sg12
F0.0
sg13
F0.0
sg28
F0.0
sg29
F0.0
ss(g22
g23
g3
g30
tp230
(dp231
g7
F0.0
sg8
F0.0
sg9
F0.0
sg10
F0.0
sg11
F0.0
sg12
F0.0
sg13
F0.0
ss(g22
g23
g3
g51
tp232
(dp233
g7
F0.0
sg8
F0.0
sg9
F0.0
sg10
F0.0
sg11
F0.0
sg12
F0.0
sg13
F-0.44999999999999996
ss(g14
g23
g24
g19
tp234
(dp235
g7
I0
sg8
I0
sg9
I0
sg11
I0
sg12
I0
sg13
I0
sg28
I0
sg29
I0
ss(g22
g15
g24
g92
tp236
(dp237
g7
F0.0
sg8
F0.0
sg9
F0.0
sg11
F0.0
sg12
F0.0
sg13
F0.0
sg28
F0.0
sg29
F0.0
ss(g22
g23
g24
g105
tp238
(dp239
g7
F0.0
sg8
F0.0
sg9
F0.0
sg11
F0.0
sg12
F0.0
sg13
F0.0
sg28
F0.0
sg29
F0.0
ss(g1
g2
g3
g43
tp240
(dp241
g7
F0.0
sg8
F0.0
sg9
F0.0
sg10
F0.0
sg11
F0.0
sg12
F0.0
sg13
F0.0
ss(g22
g15
g24
g51
tp242
(dp243
g7
F-6.0
sg8
F0.0
sg9
F0.0
sg11
F0.0
sg12
F0.0
sg13
F0.0
sg28
F-20.0
sg29
F0.0
ss(g22
g23
g24
g30
tp244
(dp245
g7
F0.0
sg8
F0.0
sg9
F0.0
sg11
F0.0
sg12
F0.0
sg13
F0.0
sg28
F0.0
sg29
F0.0
ss(g22
g23
g24
g19
tp246
(dp247
g7
I0
sg8
I0
sg9
I0
sg11
I0
sg12
I0
sg13
I0
sg28
I0
sg29
I0
ss(g14
g23
g24
g105
tp248
(dp249
g7
F0.0
sg8
F0.0
sg9
F0.0
sg11
F0.0
sg12
F-1.7999999999999998
sg13
F0.0
sg28
F-20.0
sg29
F-20.0
ss(g14
g23
g3
g19
tp250
(dp251
g7
I0
sg8
I0
sg9
I0
sg10
I0
sg11
I0
sg12
I0
sg13
I0
ss(g1
g23
g3
g92
tp252
(dp253
g7
F0.0
sg8
F0.0
sg9
I0
sg10
F0.0
sg11
F0.0
sg12
F0.0
sg13
F0.0
ss(g1
g2
g24
g4
tp254
(dp255
g7
F0.0
sg8
F-0.8999999999999999
sg9
F-10.0
sg11
F-3.0
sg12
F-3.0
sg13
F0.0
sg28
F30.0
sg29
F0.0
ss(g1
g15
g3
g25
tp256
(dp257
g7
F0.0
sg8
F0.0
sg9
F0.0
sg10
F0.0
sg11
F0.0
sg12
F0.0
sg13
F0.0
ss(g22
g2
g24
g30
tp258
(dp259
g7
F0.0
sg8
F0.8999999999999999
sg9
F0.0
sg11
F0.0
sg12
F0.0
sg13
F0.0
sg28
F0.0
sg29
F10.0
ss(g22
g2
g3
g30
tp260
(dp261
g7
F0.0
sg8
F0.0
sg9
F0.0
sg10
F0.0
sg11
F0.0
sg12
F0.0
sg13
F0.0
ss(g22
g2
g3
g92
tp262
(dp263
g7
F0.0
sg8
F0.0
sg9
F0.0
sg10
F0.0
sg11
F0.0
sg12
F0.0
sg13
F0.0
ss(g1
g2
g3
g30
tp264
(dp265
g7
F0.0
sg8
F0.0
sg9
F0.0
sg10
F0.0
sg11
F0.0
sg12
F0.0
sg13
F0.0
ss(g1
g23
g3
g105
tp266
(dp267
g7
I0
sg8
I0
sg9
I0
sg10
I0
sg11
I0
sg12
I0
sg13
I0
ss(g22
g23
g24
g4
tp268
(dp269
g7
F0.0
sg8
F0.0
sg9
F0.0
sg11
F0.0
sg12
F0.0
sg13
F0.0
sg28
F-0.8999999999999999
sg29
F-18.0
ss(g14
g15
g3
g43
tp270
(dp271
g7
F0.0
sg8
F0.0
sg9
F-15.0
sg10
F-11.598000675
sg11
F-50.0
sg12
F-50.0
sg13
F-38.66000225
ss(g14
g15
g3
g30
tp272
(dp273
g7
F0.0
sg8
F-9.0
sg9
F0.0
sg10
F0.0
sg11
F0.0
sg12
F10.6199955
sg13
F0.0
ss(g1
g23
g3
g4
tp274
(dp275
g7
F-18.0
sg8
F-5.3999999999999995
sg9
F0.0
sg10
F0.0
sg11
F-60.0
sg12
F0.0
sg13
F0.0
ss(g14
g2
g3
g105
tp276
(dp277
g7
F0.0
sg8
F0.0
sg9
F-20.0
sg10
F-1.7999999999999998
sg11
F0.0
sg12
F-6.0
sg13
F-20.0
ss(g22
g23
g3
g105
tp278
(dp279
g7
F0.0
sg8
F0.0
sg9
F0.0
sg10
F0.0
sg11
F0.0
sg12
F0.0
sg13
F0.0
ss(g1
g15
g3
g105
tp280
(dp281
g7
F0.0
sg8
F0.0
sg9
F0.0
sg10
F0.0
sg11
F0.0
sg12
F0.0
sg13
F0.0
ss(g14
g15
g24
g16
tp282
(dp283
g7
F-45.0
sg8
F0.0
sg9
F0.0
sg11
F0.0
sg12
F0.0
sg13
F0.0
sg28
F0.0
sg29
F0.0
ss(g22
g15
g24
g105
tp284
(dp285
g7
F0.0
sg8
F0.0
sg9
F0.0
sg11
F0.0
sg12
F0.0
sg13
F0.0
sg28
F0.0
sg29
F0.0
ss(g22
g2
g24
g43
tp286
(dp287
g7
F0.0
sg8
F0.0
sg9
F0.0
sg11
F0.0
sg12
F0.0
sg13
F0.0
sg28
F0.0
sg29
F0.0
ss(g1
g2
g24
g105
tp288
(dp289
g7
F0.0
sg8
F0.0
sg9
F0.0
sg11
F0.0
sg12
F0.0
sg13
F0.0
sg28
F3.0
sg29
F0.0
ss(g14
g15
g24
g19
tp290
(dp291
g7
F0.0
sg8
F0.0
sg9
F0.0
sg11
F75.0
sg12
F0.0
sg13
F0.0
sg28
F0.0
sg29
F0.0
ss(g14
g23
g24
g51
tp292
(dp293
g7
I0
sg8
I0
sg9
F0.0
sg11
F0.0
sg12
F0.0
sg13
F0.0
sg28
F0.0
sg29
F0.0
ss(g22
g23
g3
g38
tp294
(dp295
g7
I0
sg8
I0
sg9
I0
sg10
I0
sg11
I0
sg12
I0
sg13
I0
ss(g14
g15
g24
g105
tp296
(dp297
g7
F0.0
sg8
F0.0
sg9
F-20.0
sg11
F-6.0
sg12
F-20.0
sg13
F-20.0
sg28
F-20.0
sg29
F0.0
ss(g14
g2
g24
g4
tp298
(dp299
g7
F0.0
sg8
F-3.0
sg9
F-3.0
sg11
F1.3499999999999999
sg12
F0.0
sg13
F4.5
sg28
F-10.0
sg29
F0.0
ss(g14
g23
g3
g4
tp300
(dp301
g7
F15.0
sg8
F-5.3999999999999995
sg9
F0.0
sg10
F-3.0
sg11
F0.0
sg12
F-3.0
sg13
F0.0
ss(g22
g15
g24
g19
tp302
(dp303
g7
F0.0
sg8
F0.0
sg9
F0.0
sg11
F0.0
sg12
F0.0
sg13
F0.0
sg28
F0.0
sg29
F0.0
ss(g1
g23
g3
g43
tp304
(dp305
g7
F0.0
sg8
F0.0
sg9
F0.0
sg10
F0.0
sg11
F0.0
sg12
F0.0
sg13
F0.0
ss(g14
g23
g3
g51
tp306
(dp307
g7
I0
sg8
I0
sg9
I0
sg10
I0
sg11
I0
sg12
I0
sg13
F0.0
ss(g14
g15
g3
g4
tp308
(dp309
g7
F0.0
sg8
F0.0
sg9
F0.0
sg10
F0.0
sg11
F0.0
sg12
F0.0
sg13
F0.0
ss(g22
g2
g3
g35
tp310
(dp311
g7
F-0.8999999999999999
sg8
F-3.0
sg9
F0.0
sg10
F0.0
sg11
F0.0
sg12
F0.0
sg13
F-3.0
ss(g1
g2
g24
g25
tp312
(dp313
g7
F0.0
sg8
F0.0
sg9
F0.0
sg11
F0.0
sg12
F0.0
sg13
F0.0
sg28
F0.0
sg29
F0.0
ss(g22
g15
g24
g25
tp314
(dp315
g7
F0.0
sg8
F0.0
sg9
F0.0
sg11
F0.0
sg12
F0.0
sg13
F0.0
sg28
F-3.5999999999999996
sg29
F0.0
ss(g22
g23
g3
g25
tp316
(dp317
g7
F0.0
sg8
F0.0
sg9
F0.0
sg10
F0.0
sg11
F0.0
sg12
F0.0
sg13
F0.0
ss(g1
g2
g24
g16
tp318
(dp319
g7
F-10.0
sg8
F0.0
sg9
F0.0
sg11
F0.0
sg12
F-3.0
sg13
F-4.5
sg28
F0.0
sg29
F0.0
ss(g1
g23
g3
g19
tp320
(dp321
g7
I0
sg8
I0
sg9
I0
sg10
I0
sg11
I0
sg12
I0
sg13
I0
ss(g22
g15
g24
g43
tp322
(dp323
g7
F0.0
sg8
F0.0
sg9
F0.0
sg11
F-4.5
sg12
F0.0
sg13
F0.0
sg28
F0.0
sg29
F0.0
ss(g1
g15
g24
g51
tp324
(dp325
g7
F0.0
sg8
F0.0
sg9
F0.0
sg11
F0.0
sg12
F0.0
sg13
F0.0
sg28
F0.0
sg29
F0.0
ss(g14
g23
g3
g25
tp326
(dp327
g7
F0.0
sg8
F0.0
sg9
F0.0
sg10
F1.3499999999999999
sg11
F0.0
sg12
F0.0
sg13
I0
ss(g22
g15
g24
g30
tp328
(dp329
g7
F0.0
sg8
F0.0
sg9
F0.0
sg11
F0.0
sg12
F0.0
sg13
F0.0
sg28
F0.0
sg29
F0.0
ss(g1
g23
g24
g105
tp330
(dp331
g7
I0
sg8
F3.0
sg9
I0
sg11
I0
sg12
I0
sg13
I0
sg28
I0
sg29
I0
ss(g1
g15
g3
g92
tp332
(dp333
g7
F0.0
sg8
F0.0
sg9
F0.0
sg10
F0.0
sg11
F0.0
sg12
F0.0
sg13
F0.0
ss(g1
g15
g24
g30
tp334
(dp335
g7
F0.0
sg8
F0.0
sg9
F0.0
sg11
F0.0
sg12
F0.0
sg13
F0.0
sg28
F0.0
sg29
F0.0
ss(g14
g15
g3
g25
tp336
(dp337
g7
F0.0
sg8
F-3.5999999999999996
sg9
F0.0
sg10
F0.0
sg11
F0.0
sg12
F0.0
sg13
F0.0
ss(g14
g2
g24
g30
tp338
(dp339
g7
F0.0
sg8
F0.0
sg9
F0.0
sg11
F0.0
sg12
F0.0
sg13
F-9.0
sg28
F0.0
sg29
F0.0
ss(g14
g23
g24
g35
tp340
(dp341
g7
F0.0
sg8
F0.0
sg9
F-0.8999999999999999
sg11
F-10.0
sg12
F-0.8999999999999999
sg13
F-10.0
sg28
F0.0
sg29
F-0.8999999999999999
ss(g1
g23
g24
g51
tp342
(dp343
g7
I0
sg8
I0
sg9
I0
sg11
I0
sg12
I0
sg13
I0
sg28
I0
sg29
I0
ss(g14
g23
g3
g35
tp344
(dp345
g7
F0.0
sg8
F0.0
sg9
F-10.0
sg10
F0.0
sg11
F-0.8999999999999999
sg12
F-0.8999999999999999
sg13
F-3.0
ss(g14
g23
g24
g43
tp346
(dp347
g7
F0.0
sg8
F-3.0
sg9
F-10.0
sg11
F0.0
sg12
F0.0
sg13
F0.0
sg28
F0.0
sg29
F0.0
ss(g22
g15
g3
g105
tp348
(dp349
g7
F0.8999999999999999
sg8
F3.0
sg9
F0.0
sg10
F-1.7999999999999998
sg11
F-1.7999999999999998
sg12
F10.0
sg13
F0.0
ss(g14
g15
g3
g51
tp350
(dp351
g7
F0.0
sg8
F0.0
sg9
F0.0
sg10
F0.0
sg11
F0.0
sg12
F0.0
sg13
F0.0
ss(g22
g23
g3
g19
tp352
(dp353
g7
I0
sg8
I0
sg9
I0
sg10
I0
sg11
I0
sg12
I0
sg13
I0
ss(g22
g23
g3
g4
tp354
(dp355
g7
F-10.0
sg8
F0.0
sg9
F-60.0
sg10
F-40.0
sg11
F0.0
sg12
F0.0
sg13
F0.0
ss(g14
g23
g3
g43
tp356
(dp357
g7
F0.0
sg8
F0.0
sg9
F0.0
sg10
F0.0
sg11
F0.0
sg12
F-0.8999999999999999
sg13
F-1.7999999999999998
ss(g14
g2
g3
g4
tp358
(dp359
g7
F0.0
sg8
F-3.0
sg9
F0.0
sg10
F0.0
sg11
F-3.0
sg12
F0.0
sg13
F0.0
ss(g22
g2
g3
g48
tp360
(dp361
g7
F-10.0
sg8
I0
sg9
I0
sg10
F0.0
sg11
F0.0
sg12
F-0.8999999999999999
sg13
F0.0
ss(g14
g23
g24
g30
tp362
(dp363
g7
F0.0
sg8
F-2.6999999999999997
sg9
F-0.8999999999999999
sg11
F0.0
sg12
F0.0
sg13
F0.0
sg28
F0.0
sg29
F-10.0
ss(g14
g15
g24
g51
tp364
(dp365
g7
F0.0
sg8
F0.0
sg9
F-1.7999999999999998
sg11
F0.0
sg12
F0.0
sg13
F0.0
sg28
F0.0
sg29
F0.0
ss(g14
g2
g24
g51
tp366
(dp367
g7
F0.0
sg8
F-6.0
sg9
F0.0
sg11
F0.0
sg12
F0.0
sg13
F0.0
sg28
F-20.0
sg29
F0.0
ss(g1
g23
g24
g4
tp368
(dp369
g7
F0.0
sg8
F0.0
sg9
F0.0
sg11
F0.0
sg12
F0.0
sg13
F0.0
sg28
F0.0
sg29
F0.0
ss(g22
g15
g24
g4
tp370
(dp371
g7
F0.0
sg8
F0.0
sg9
F0.0
sg11
F0.0
sg12
F0.0
sg13
F0.0
sg28
F0.0
sg29
F0.0
ss(g1
g15
g24
g105
tp372
(dp373
g7
F0.0
sg8
F0.0
sg9
F0.0
sg11
F0.0
sg12
F0.0
sg13
F0.0
sg28
F0.0
sg29
F0.0
ss(g1
g23
g3
g38
tp374
(dp375
g7
I0
sg8
I0
sg9
I0
sg10
I0
sg11
I0
sg12
I0
sg13
I0
ss(g1
g2
g3
g92
tp376
(dp377
g7
F0.0
sg8
F0.0
sg9
F0.0
sg10
F0.0
sg11
F0.0
sg12
F0.0
sg13
F0.0
ss(g1
g2
g3
g51
tp378
(dp379
g7
F0.0
sg8
F0.0
sg9
F0.0
sg10
F0.0
sg11
F0.0
sg12
F0.0
sg13
F0.0
ss(g14
g15
g24
g30
tp380
(dp381
g7
F0.0
sg8
F-9.0
sg9
F-2.6999999999999997
sg11
F-30.0
sg12
F-2.6999999999999997
sg13
F-30.0
sg28
F0.0
sg29
F0.0
ss(g22
g15
g3
g43
tp382
(dp383
g7
F0.0
sg8
F0.0
sg9
F-4.5
sg10
F0.0
sg11
F0.0
sg12
F0.0
sg13
F0.0
ss(g1
g15
g24
g92
tp384
(dp385
g7
F0.0
sg8
F0.0
sg9
F0.0
sg11
F0.0
sg12
F0.0
sg13
F0.0
sg28
F0.0
sg29
F0.0
ss(g22
g23
g3
g16
tp386
(dp387
g7
F0.0
sg8
F0.0
sg9
F0.0
sg10
F0.0
sg11
F0.0
sg12
F0.0
sg13
F0.0
ss(g1
g15
g24
g43
tp388
(dp389
g7
F0.0
sg8
F0.0
sg9
F0.0
sg11
F0.0
sg12
F0.0
sg13
F0.0
sg28
F0.0
sg29
F0.0
ss(g22
g2
g24
g92
tp390
(dp391
g7
F-6.0
sg8
F-6.0
sg9
F-1.7999999999999998
sg11
F-20.0
sg12
F3.0
sg13
F-20.0
sg28
F-20.0
sg29
F10.0
ss(g22
g23
g24
g16
tp392
(dp393
g7
F0.0
sg8
F0.0
sg9
F-3.0
sg11
F0.0
sg12
F0.0
sg13
F0.0
sg28
F0.0
sg29
F-10.0
ss(g14
g23
g24
g48
tp394
(dp395
g7
I0
sg8
I0
sg9
I0
sg11
I0
sg12
I0
sg13
I0
sg28
I0
sg29
I0
ss(g22
g15
g24
g38
tp396
(dp397
g7
F0.0
sg8
F0.0
sg9
F0.0
sg11
F0.0
sg12
F0.0
sg13
F0.0
sg28
F0.0
sg29
F0.0
ss(g22
g2
g24
g4
tp398
(dp399
g7
F0.0
sg8
F-10.0
sg9
F0.0
sg11
F0.0
sg12
F-3.0
sg13
F2.6999999999999997
sg28
F0.0
sg29
F0.0
ss(g14
g23
g24
g4
tp400
(dp401
g7
F0.0
sg8
F-4.05
sg9
F0.0
sg11
F0.0
sg12
F0.0
sg13
F0.0
sg28
F0.0
sg29
F0.0
ss(g1
g15
g3
g19
tp402
(dp403
g7
F0.0
sg8
F0.0
sg9
F0.0
sg10
F0.0
sg11
F0.0
sg12
F0.0
sg13
F0.0
ss(g22
g15
g3
g19
tp404
(dp405
g7
F75.0
sg8
F0.0
sg9
F0.0
sg10
F0.0
sg11
F0.0
sg12
F0.0
sg13
F0.0
ss(g22
g15
g3
g30
tp406
(dp407
g7
F0.0
sg8
F0.0
sg9
F0.0
sg10
F0.0
sg11
F0.0
sg12
F0.0
sg13
F0.0
ss(g14
g2
g24
g105
tp408
(dp409
g7
F-1.7999999999999998
sg8
F-6.0
sg9
F-20.0
sg11
F0.0
sg12
F0.0
sg13
F0.0
sg28
F0.0
sg29
F0.0
ss(g14
g23
g3
g38
tp410
(dp411
g7
I0
sg8
I0
sg9
I0
sg10
I0
sg11
I0
sg12
I0
sg13
I0
ss(g1
g15
g3
g43
tp412
(dp413
g7
F0.0
sg8
F0.0
sg9
F0.0
sg10
F0.0
sg11
F0.0
sg12
F0.0
sg13
F0.0
ss(g1
g2
g3
g105
tp414
(dp415
g7
F0.0
sg8
F0.0
sg9
F0.0
sg10
F0.0
sg11
F0.0
sg12
F0.0
sg13
F0.0
ss(g14
g15
g24
g43
tp416
(dp417
g7
F-50.0
sg8
F0.0
sg9
F-50.0
sg11
F0.0
sg12
F-15.0
sg13
F-48.758
sg28
F0.0
sg29
F-15.0
ss(g14
g2
g24
g92
tp418
(dp419
g7
F-6.0
sg8
F-20.0
sg9
F0.8999999999999999
sg11
F-6.0
sg12
F0.0
sg13
F0.0
sg28
F-20.0
sg29
F-5.0
ss(g14
g2
g24
g48
tp420
(dp421
g7
I0
sg8
I0
sg9
I0
sg11
I0
sg12
I0
sg13
I0
sg28
I0
sg29
I0
ss(g22
g23
g24
g51
tp422
(dp423
g7
I0
sg8
F-1.5
sg9
F0.0
sg11
F0.0
sg12
F0.0
sg13
F0.0
sg28
F0.0
sg29
F0.0
ss(g14
g15
g24
g4
tp424
(dp425
g7
F-5.3999999999999995
sg8
F0.0
sg9
F0.0
sg11
F0.0
sg12
F0.0
sg13
F0.0
sg28
F0.0
sg29
F0.0
ss(g1
g15
g24
g48
tp426
(dp427
g7
F0.0
sg8
F0.0
sg9
F0.0
sg11
F0.0
sg12
F-10.0
sg13
F0.0
sg28
F0.0
sg29
F0.0
ss(g22
g15
g24
g16
tp428
(dp429
g7
F0.0
sg8
F0.0
sg9
F0.0
sg11
F0.0
sg12
F0.0
sg13
F0.0
sg28
F0.0
sg29
F0.0
ss(g22
g2
g3
g4
tp430
(dp431
g7
F0.0
sg8
F0.0
sg9
F0.0
sg10
F0.0
sg11
F0.0
sg12
F0.0
sg13
F0.0
ss(g14
g15
g3
g92
tp432
(dp433
g7
F-6.0
sg8
F0.0
sg9
F0.0
sg10
F0.0
sg11
F0.0
sg12
F0.0
sg13
F0.0
ss(g14
g23
g24
g16
tp434
(dp435
g7
I0
sg8
I0
sg9
I0
sg11
I0
sg12
I0
sg13
I0
sg28
I0
sg29
I0
ss(g14
g2
g3
g19
tp436
(dp437
g7
I0
sg8
I0
sg9
I0
sg10
I0
sg11
I0
sg12
I0
sg13
I0
ss(g1
g2
g24
g43
tp438
(dp439
g7
F0.0
sg8
F0.0
sg9
F3.0
sg11
F0.0
sg12
F0.0
sg13
F0.0
sg28
F0.0
sg29
F0.0
ss(g14
g2
g3
g43
tp440
(dp441
g7
F0.0
sg8
F0.0
sg9
F0.0
sg10
F0.0
sg11
F0.0
sg12
F0.0
sg13
F0.0
ss(g22
g15
g3
g38
tp442
(dp443
g7
F0.0
sg8
F0.0
sg9
F0.0
sg10
F0.0
sg11
F0.0
sg12
F0.0
sg13
F0.0
ss(g1
g15
g24
g25
tp444
(dp445
g7
F0.0
sg8
F0.0
sg9
F0.0
sg11
F0.0
sg12
F0.0
sg13
F0.0
sg28
F0.0
sg29
F0.0
ss(g1
g2
g24
g19
tp446
(dp447
g7
I0
sg8
I0
sg9
I0
sg11
I0
sg12
I0
sg13
I0
sg28
I0
sg29
I0
ss(g1
g2
g24
g30
tp448
(dp449
g7
F0.0
sg8
F0.0
sg9
F0.0
sg11
F0.0
sg12
F0.0
sg13
F0.0
sg28
F0.0
sg29
F0.0
ss(g14
g23
g24
g92
tp450
(dp451
g7
F-10.0
sg8
F0.0
sg9
F0.0
sg11
I0
sg12
I0
sg13
F0.0
sg28
F-20.0
sg29
F-3.0
ss(g1
g23
g24
g19
tp452
(dp453
g7
I0
sg8
I0
sg9
I0
sg11
I0
sg12
I0
sg13
I0
sg28
I0
sg29
I0
ss(g14
g2
g3
g51
tp454
(dp455
g7
F0.0
sg8
F0.0
sg9
F0.0
sg10
F0.0
sg11
F0.0
sg12
I0
sg13
F-20.0
ss(g22
g23
g24
g35
tp456
(dp457
g7
F0.0
sg8
F0.0
sg9
F0.0
sg11
F0.0
sg12
F0.0
sg13
F0.0
sg28
F0.0
sg29
F0.0
ss(g1
g15
g3
g30
tp458
(dp459
g7
F0.0
sg8
F0.0
sg9
F0.0
sg10
F0.0
sg11
F0.0
sg12
F0.0
sg13
F0.0
ss(g14
g23
g3
g16
tp460
(dp461
g7
I0
sg8
I0
sg9
I0
sg10
I0
sg11
I0
sg12
I0
sg13
I0
ss.