(dp0
(S'Far'
p1
S'Med'
p2
S'sword'
p3
S'Witch'
p4
tp5
(dp6
S'strafe 1'
p7
F-3.0
sS'strafe 0'
p8
F45.0
sS'strafe -1'
p9
F-2.3999999999999995
sS'attack 1'
p10
F-5.3999999999999995
sS'move 1'
p11
F4.05
sS'move 0'
p12
F-5.3999999999999995
sS'switch'
p13
F-8.0
ss(S'Melee'
p14
S'Hi'
p15
S'bow'
p16
S'Silverfish'
p17
tp18
(dp19
g7
F6.75
sg8
F0.0
sg9
F0.0
sg11
F0.0
sg12
F0.0
sg13
F22.5
sS'use 0'
p20
F0.0
sS'use 1'
p21
F0.0
ss(S'Close'
p22
g15
g3
S'Blaze'
p23
tp24
(dp25
g7
I0
sg8
I0
sg9
I0
sg10
I0
sg11
I0
sg12
I0
sg13
I0
ss(g1
g2
g3
S'Creeper'
p26
tp27
(dp28
g7
I0
sg8
I0
sg9
I0
sg10
I0
sg11
I0
sg12
I0
sg13
I0
ss(g14
S'Low'
p29
g16
S'Wolf'
p30
tp31
(dp32
g7
I0
sg8
I0
sg9
I0
sg11
I0
sg12
I0
sg13
I0
sg20
I0
sg21
I0
ss(g22
g2
g3
S'Skeleton'
p33
tp34
(dp35
g7
F0.0
sg8
F9.75
sg9
F0.0
sg10
F-4.649999999999999
sg11
F0.0
sg12
F0.0
sg13
F-15.5
ss(g1
g29
g3
S'Zombie'
p36
tp37
(dp38
g7
I0
sg8
I0
sg9
I0
sg10
F0.0
sg11
I0
sg12
I0
sg13
F0.0
ss(g1
g2
g3
g23
tp39
(dp40
g7
F0.0
sg8
F0.0
sg9
F0.0
sg10
F0.0
sg11
F0.0
sg12
F-10.0
sg13
F0.0
ss(g22
g15
g3
S'Cave Spider'
p41
tp42
(dp43
g7
F-1.8000000000000007
sg8
F-10.0
sg9
F-6.0
sg10
F0.0
sg11
F0.0
sg12
F-20.0
sg13
F0.0
ss(g14
g29
g16
g17
tp44
(dp45
g7
I0
sg8
I0
sg9
I0
sg11
I0
sg12
I0
sg13
I0
sg20
I0
sg21
I0
ss(g22
g29
g16
g30
tp46
(dp47
g7
I0
sg8
I0
sg9
I0
sg11
I0
sg12
I0
sg13
I0
sg20
I0
sg21
I0
ss(g14
g29
g3
S'Zombie Pigman'
p48
tp49
(dp50
g7
F0.0
sg8
F0.0
sg9
F0.0
sg10
F0.0
sg11
F0.0
sg12
F0.0
sg13
F0.9000000000000057
ss(g1
g2
g3
g41
tp51
(dp52
g7
F-10.0
sg8
F0.8999999999999999
sg9
F3.0
sg10
F-0.8999999999999999
sg11
F0.0
sg12
F0.0
sg13
F-10.0
ss(g1
g2
g16
S'Ghast'
p53
tp54
(dp55
g7
F0.0
sg8
F0.0
sg9
F0.0
sg11
F0.0
sg12
F0.0
sg13
F0.0
sg20
F0.0
sg21
F0.0
ss(g14
g2
g3
g36
tp56
(dp57
g7
F0.0
sg8
F0.0
sg9
F0.0
sg10
F0.0
sg11
F0.0
sg12
F0.0
sg13
F0.0
ss(g14
g2
g16
g17
tp58
(dp59
g7
I0
sg8
I0
sg9
I0
sg11
I0
sg12
I0
sg13
I0
sg20
I0
sg21
I0
ss(g1
g2
g3
g30
tp60
(dp61
g7
F0.0
sg8
F0.0
sg9
F0.0
sg10
F0.0
sg11
F0.0
sg12
F0.0
sg13
F0.0
ss(g1
g15
g16
g17
tp62
(dp63
g7
F0.0
sg8
F0.0
sg9
F0.0
sg11
F0.0
sg12
F0.0
sg13
F0.0
sg20
F0.0
sg21
F0.0
ss(g22
g2
g16
g17
tp64
(dp65
g7
I0
sg8
I0
sg9
I0
sg11
I0
sg12
I0
sg13
I0
sg20
I0
sg21
I0
ss(g14
g29
g3
g41
tp66
(dp67
g7
F0.0
sg8
F0.0
sg9
F0.0
sg10
F0.0
sg11
F0.0
sg12
F-0.8999999999999999
sg13
F0.0
ss(g1
g29
g3
g41
tp68
(dp69
g7
F0.0
sg8
F0.0
sg9
F0.0
sg10
F0.0
sg11
F-3.0
sg12
F-10.0
sg13
F0.0
ss(g1
g2
g16
g17
tp70
(dp71
g7
I0
sg8
I0
sg9
I0
sg11
I0
sg12
I0
sg13
I0
sg20
I0
sg21
I0
ss(g14
g2
g16
g26
tp72
(dp73
g7
I0
sg8
I0
sg9
I0
sg11
I0
sg12
I0
sg13
I0
sg20
I0
sg21
I0
ss(g14
g2
g16
g30
tp74
(dp75
g7
F-3.5999999999999996
sg8
F0.0
sg9
F0.0
sg11
F0.0
sg12
F0.0
sg13
F0.0
sg20
F0.0
sg21
F0.0
ss(g22
g15
g16
g17
tp76
(dp77
g7
F-10.0
sg8
F-10.0
sg9
F-10.0
sg11
F-0.8999999999999999
sg12
F0.0
sg13
F-3.0
sg20
F-3.0
sg21
F0.0
ss(g14
g2
g3
g48
tp78
(dp79
g7
F0.0
sg8
F0.0
sg9
F0.0
sg10
F0.0
sg11
F0.0
sg12
F0.0
sg13
F0.0
ss(g1
g29
g3
g23
tp80
(dp81
g7
F0.0
sg8
F0.0
sg9
F0.0
sg10
F-3.0
sg11
F0.0
sg12
F-3.0
sg13
F0.0
ss(g14
g15
g16
g53
tp82
(dp83
g7
I0
sg8
I0
sg9
I0
sg11
F0.0
sg12
I0
sg13
F0.0
sg20
I0
sg21
F0.0
ss(g1
g15
g3
g4
tp84
(dp85
g7
F0.0
sg8
F0.0
sg9
F0.0
sg10
F0.0
sg11
F0.0
sg12
F0.0
sg13
F0.0
ss(g22
g2
g3
g17
tp86
(dp87
g7
I0
sg8
I0
sg9
I0
sg10
I0
sg11
I0
sg12
I0
sg13
I0
ss(g1
g15
g3
g17
tp88
(dp89
g7
F0.0
sg8
F0.0
sg9
F0.0
sg10
F0.0
sg11
F0.0
sg12
F0.0
sg13
F0.0
ss(g14
g2
g16
g23
tp90
(dp91
g7
F0.0
sg8
F0.0
sg9
F0.0
sg11
F0.0
sg12
F0.0
sg13
F0.0
sg20
I0
sg21
F0.0
ss(g1
g2
g16
g41
tp92
(dp93
g7
F0.0
sg8
F0.0
sg9
F0.0
sg11
F-3.0
sg12
F-10.0
sg13
F0.0
sg20
F0.0
sg21
F-9.1
ss(g1
g2
g3
g53
tp94
(dp95
g7
F-10.0
sg8
F-13.9
sg9
F-0.8999999999999999
sg10
F-0.8999999999999999
sg11
F-13.0
sg12
F-23.9
sg13
F-3.9
ss(g14
g29
g3
S'Endermite'
p96
tp97
(dp98
g7
I0
sg8
I0
sg9
I0
sg10
I0
sg11
I0
sg12
I0
sg13
I0
ss(g22
g29
g3
g96
tp99
(dp100
g7
I0
sg8
I0
sg9
I0
sg10
I0
sg11
I0
sg12
I0
sg13
I0
ss(g22
g15
g16
g41
tp101
(dp102
g7
F0.0
sg8
F0.0
sg9
F-6.0
sg11
F0.0
sg12
F-6.0
sg13
F-6.0
sg20
F-1.7999999999999998
sg21
F0.0
ss(g22
g15
g3
g53
tp103
(dp104
g7
I0
sg8
I0
sg9
I0
sg10
I0
sg11
I0
sg12
I0
sg13
I0
ss(g22
g2
g3
g36
tp105
(dp106
g7
F0.0
sg8
F-30.0
sg9
F-30.0
sg10
F0.0
sg11
F0.0
sg12
F-30.0
sg13
F0.0
ss(g14
g15
g3
g53
tp107
(dp108
g7
F0.0
sg8
I0
sg9
I0
sg10
F60.0
sg11
F0.0
sg12
F0.0
sg13
F0.0
ss(g14
g2
g3
g33
tp109
(dp110
g7
F0.0
sg8
F0.0
sg9
F0.0
sg10
F0.0
sg11
F0.0
sg12
F0.0
sg13
F0.0
ss(g1
g29
g16
g53
tp111
(dp112
g7
F-13.0
sg8
F-10.9
sg9
F0.0
sg11
F0.0
sg12
F-15.0
sg13
F0.0
sg20
F-10.0
sg21
F-13.9
ss(g14
g2
g3
g26
tp113
(dp114
g7
I0
sg8
I0
sg9
I0
sg10
I0
sg11
I0
sg12
I0
sg13
I0
ss(g1
g15
g3
g53
tp115
(dp116
g7
F0.0
sg8
F0.0
sg9
F0.0
sg10
F0.0
sg11
F0.0
sg12
F-60.0
sg13
F0.0
ss(g1
g29
g3
S'Spider'
p117
tp118
(dp119
g7
I0
sg8
I0
sg9
I0
sg10
I0
sg11
I0
sg12
I0
sg13
I0
ss(g22
g2
g3
g53
tp120
(dp121
g7
I0
sg8
I0
sg9
I0
sg10
I0
sg11
I0
sg12
I0
sg13
I0
ss(g22
g15
g3
g17
tp122
(dp123
g7
F-3.0
sg8
F-10.0
sg9
F-10.0
sg10
F-10.0
sg11
F-10.0
sg12
F-3.0
sg13
F-10.0
ss(g22
g29
g3
g36
tp124
(dp125
g7
F-30.0
sg8
F0.0
sg9
F0.0
sg10
F-3.0
sg11
I0
sg12
F0.0
sg13
F-10.0
ss(g22
g15
g16
g53
tp126
(dp127
g7
I0
sg8
I0
sg9
I0
sg11
I0
sg12
I0
sg13
I0
sg20
I0
sg21
I0
ss(g22
g29
g3
g33
tp128
(dp129
g7
I0
sg8
I0
sg9
I0
sg10
I0
sg11
I0
sg12
I0
sg13
I0
ss(g1
g2
g3
g17
tp130
(dp131
g7
I0
sg8
I0
sg9
I0
sg10
I0
sg11
I0
sg12
I0
sg13
I0
ss(g14
g2
g3
g17
tp132
(dp133
g7
I0
sg8
I0
sg9
I0
sg10
I0
sg11
I0
sg12
I0
sg13
I0
ss(g1
g29
g16
g30
tp134
(dp135
g7
I0
sg8
I0
sg9
I0
sg11
I0
sg12
I0
sg13
I0
sg20
I0
sg21
I0
ss(g14
g2
g16
g33
tp136
(dp137
g7
F0.0
sg8
F0.0
sg9
F0.0
sg11
F0.0
sg12
F0.0
sg13
F-1.7999999999999998
sg20
F0.0
sg21
F0.0
ss(g22
g15
g16
g96
tp138
(dp139
g7
F-20.0
sg8
F0.0
sg9
F-20.0
sg11
F-6.0
sg12
F0.0
sg13
F-20.0
sg20
F0.0
sg21
F-6.0
ss(g14
g15
g3
g30
tp140
(dp141
g7
F0.0
sg8
F-40.0
sg9
F0.0
sg10
F0.0
sg11
F0.0
sg12
F0.0
sg13
F-3.5999999999999996
ss(g22
g2
g3
g41
tp142
(dp143
g7
F-20.0
sg8
F-20.0
sg9
F-6.0
sg10
F0.0
sg11
F-6.0
sg12
F-3.0
sg13
F-3.0
ss(g14
g2
g16
g41
tp144
(dp145
g7
F-1.7999999999999998
sg8
F0.0
sg9
F-0.8999999999999999
sg11
F-6.0
sg12
F-6.0
sg13
F-20.0
sg20
F-20.0
sg21
F-20.0
ss(g22
g15
g16
g117
tp146
(dp147
g7
F-1.7999999999999998
sg8
F0.0
sg9
F0.0
sg11
F-1.7999999999999998
sg12
F0.0
sg13
F0.8999999999999999
sg20
F-6.0
sg21
F-20.0
ss(g14
g29
g16
g96
tp148
(dp149
g7
I0
sg8
I0
sg9
I0
sg11
I0
sg12
I0
sg13
I0
sg20
I0
sg21
I0
ss(g1
g15
g3
g41
tp150
(dp151
g7
F-3.0
sg8
F0.0
sg9
F0.0
sg10
F0.0
sg11
F0.0
sg12
F-10.0
sg13
F0.0
ss(g22
g2
g3
g23
tp152
(dp153
g7
I0
sg8
I0
sg9
I0
sg10
I0
sg11
I0
sg12
I0
sg13
I0
ss(g22
g2
g3
g30
tp154
(dp155
g7
F0.0
sg8
F-3.5999999999999996
sg9
F18.0
sg10
F0.0
sg11
I0
sg12
F15.0
sg13
F-12.0
ss(g1
g29
g16
g41
tp156
(dp157
g7
I0
sg8
F0.0
sg9
F0.0
sg11
F0.0
sg12
I0
sg13
I0
sg20
I0
sg21
F0.0
ss(g1
g15
g3
g23
tp158
(dp159
g7
F0.0
sg8
F-4.5
sg9
F0.0
sg10
F0.0
sg11
F0.0
sg12
F0.0
sg13
F-15.9
ss(g14
g15
g3
g41
tp160
(dp161
g7
F-11.9
sg8
F-0.8999999999999999
sg9
F0.0
sg10
F-3.0
sg11
F-10.0
sg12
F-6.0
sg13
F0.0
ss(g1
g15
g16
g23
tp162
(dp163
g7
F-3.0
sg8
F-10.0
sg9
F0.0
sg11
F-53.0
sg12
F0.0
sg13
F0.0
sg20
F0.0
sg21
F-3.0
ss(g1
g29
g16
g23
tp164
(dp165
g7
F0.0
sg8
F0.0
sg9
F0.0
sg11
F0.0
sg12
F0.0
sg13
F0.0
sg20
F0.0
sg21
F0.0
ss(g1
g2
g3
g96
tp166
(dp167
g7
I0
sg8
I0
sg9
F0.0
sg10
I0
sg11
I0
sg12
I0
sg13
F0.0
ss(g22
g2
g16
g23
tp168
(dp169
g7
I0
sg8
I0
sg9
I0
sg11
I0
sg12
I0
sg13
I0
sg20
I0
sg21
I0
ss(g14
g15
g3
g23
tp170
(dp171
g7
F0.0
sg8
F0.0
sg9
F0.0
sg10
F0.0
sg11
F0.0
sg12
F0.0
sg13
F0.0
ss(g1
g15
g16
g41
tp172
(dp173
g7
F0.0
sg8
F0.0
sg9
F0.0
sg11
F0.0
sg12
F0.0
sg13
F-0.8999999999999999
sg20
F0.0
sg21
F0.0
ss(g1
g15
g16
g4
tp174
(dp175
g7
F0.0
sg8
F-5.3999999999999995
sg9
F-0.8999999999999999
sg11
F0.0
sg12
F0.0
sg13
F0.0
sg20
F0.0
sg21
F-10.0
ss(g22
g2
g16
g41
tp176
(dp177
g7
F-6.0
sg8
F-10.0
sg9
F0.0
sg11
F-20.0
sg12
F-6.0
sg13
F-20.0
sg20
F-10.0
sg21
F-10.0
ss(g22
g29
g16
g17
tp178
(dp179
g7
I0
sg8
I0
sg9
I0
sg11
I0
sg12
I0
sg13
I0
sg20
I0
sg21
I0
ss(g22
g2
g3
g96
tp180
(dp181
g7
F-20.0
sg8
F0.0
sg9
F-6.0
sg10
F-1.7999999999999998
sg11
I0
sg12
I0
sg13
I0
ss(g1
g29
g16
g48
tp182
(dp183
g7
F0.0
sg8
I0
sg9
I0
sg11
F0.0
sg12
I0
sg13
F0.0
sg20
I0
sg21
F0.0
ss(g14
g2
g16
g53
tp184
(dp185
g7
I0
sg8
F0.8999999999999999
sg9
I0
sg11
F0.0
sg12
F0.0
sg13
F3.0
sg20
I0
sg21
I0
ss(g22
g2
g16
g30
tp186
(dp187
g7
F-12.0
sg8
F-40.0
sg9
F-12.0
sg11
F-40.0
sg12
F-40.0
sg13
F0.0
sg20
F0.0
sg21
F-3.5999999999999996
ss(g1
g29
g3
g53
tp188
(dp189
g7
F-10.0
sg8
F-10.9
sg9
F-10.9
sg10
F-13.9
sg11
F0.0
sg12
F-20.9
sg13
F-13.9
ss(g14
g29
g3
g53
tp190
(dp191
g7
I0
sg8
I0
sg9
I0
sg10
I0
sg11
I0
sg12
I0
sg13
I0
ss(g14
g2
g3
g30
tp192
(dp193
g7
F0.0
sg8
F0.0
sg9
F0.0
sg10
F0.0
sg11
F0.0
sg12
F0.0
sg13
F0.0
ss(g1
g15
g16
g26
tp194
(dp195
g7
F0.0
sg8
F0.0
sg9
F0.0
sg11
F2.6999999999999997
sg12
F9.0
sg13
F0.0
sg20
F0.0
sg21
F0.0
ss(g14
g15
g3
g117
tp196
(dp197
g7
F-1.7999999999999998
sg8
F-6.0
sg9
F-1.7999999999999998
sg10
F-6.0
sg11
F-20.0
sg12
F3.0
sg13
F8.2
ss(g1
g29
g16
g36
tp198
(dp199
g7
F0.0
sg8
F0.0
sg9
F0.0
sg11
F0.0
sg12
I0
sg13
F0.0
sg20
F0.0
sg21
I0
ss(g22
g15
g3
g26
tp200
(dp201
g7
F0.0
sg8
F0.0
sg9
F0.0
sg10
I0
sg11
I0
sg12
F15.0
sg13
F0.0
ss(g14
g15
g3
g96
tp202
(dp203
g7
F-6.0
sg8
F0.0
sg9
F0.0
sg10
F0.0
sg11
F0.0
sg12
F0.0
sg13
F0.0
ss(g1
g29
g16
g96
tp204
(dp205
g7
I0
sg8
I0
sg9
I0
sg11
I0
sg12
I0
sg13
I0
sg20
I0
sg21
I0
ss(g22
g2
g16
g48
tp206
(dp207
g7
F0.0
sg8
F-50.0
sg9
F-50.0
sg11
F0.0
sg12
F0.0
sg13
F-15.0
sg20
F0.0
sg21
F-15.0
ss(g1
g15
g16
g117
tp208
(dp209
g7
F0.0
sg8
F0.0
sg9
F0.0
sg11
F0.0
sg12
F0.0
sg13
F0.0
sg20
F0.0
sg21
F0.0
ss(g14
g2
g3
g23
tp210
(dp211
g7
F0.0
sg8
F13.5
sg9
F0.0
sg10
F0.0
sg11
F0.0
sg12
F10.0
sg13
F0.0
ss(g14
g2
g3
g117
tp212
(dp213
g7
F9.0
sg8
F0.0
sg9
F0.0
sg10
F4.05
sg11
F0.0
sg12
F0.0
sg13
I0
ss(g1
g29
g3
g30
tp214
(dp215
g7
I0
sg8
I0
sg9
I0
sg10
I0
sg11
I0
sg12
I0
sg13
I0
ss(g22
g15
g3
g33
tp216
(dp217
g7
F-13.925
sg8
F-20.0
sg9
F6.75
sg10
F0.0
sg11
F-20.0
sg12
F-20.0
sg13
F-6.0
ss(g1
g15
g3
g117
tp218
(dp219
g7
F0.0
sg8
F0.0
sg9
F0.0
sg10
F0.0
sg11
F0.0
sg12
F0.0
sg13
F0.0
ss(g14
g15
g16
g41
tp220
(dp221
g7
F-6.0
sg8
F-20.0
sg9
F0.0
sg11
F-20.0
sg12
F0.0
sg13
F0.0
sg20
F0.0
sg21
F0.0
ss(g14
g15
g3
g4
tp222
(dp223
g7
F-3.0
sg8
F-0.8999999999999999
sg9
F0.0
sg10
F-10.0
sg11
F-60.0
sg12
F-10.0
sg13
F0.0
ss(g14
g29
g16
g48
tp224
(dp225
g7
F0.0
sg8
F0.0
sg9
F0.0
sg11
F3.0
sg12
F10.0
sg13
F0.0
sg20
F0.0
sg21
F0.0
ss(g22
g2
g16
g26
tp226
(dp227
g7
I0
sg8
I0
sg9
I0
sg11
I0
sg12
I0
sg13
I0
sg20
I0
sg21
I0
ss(g14
g29
g16
g53
tp228
(dp229
g7
I0
sg8
I0
sg9
I0
sg11
I0
sg12
I0
sg13
I0
sg20
I0
sg21
I0
ss(g22
g29
g3
g53
tp230
(dp231
g7
I0
sg8
I0
sg9
I0
sg10
I0
sg11
I0
sg12
I0
sg13
I0
ss(g22
g15
g16
g30
tp232
(dp233
g7
F-40.0
sg8
F-12.0
sg9
F-40.0
sg11
F-40.0
sg12
F-40.0
sg13
F-40.0
sg20
F-3.5999999999999996
sg21
F-40.0
ss(g1
g29
g16
g17
tp234
(dp235
g7
I0
sg8
I0
sg9
I0
sg11
I0
sg12
I0
sg13
I0
sg20
I0
sg21
I0
ss(g1
g2
g16
g96
tp236
(dp237
g7
F0.0
sg8
F0.0
sg9
F0.0
sg11
F0.0
sg12
F0.0
sg13
I0
sg20
F0.0
sg21
F0.0
ss(g14
g29
g3
g36
tp238
(dp239
g7
F0.0
sg8
F0.0
sg9
F0.0
sg10
F0.0
sg11
F0.0
sg12
F0.0
sg13
F0.0
ss(g14
g29
g3
g117
tp240
(dp241
g7
I0
sg8
I0
sg9
I0
sg10
I0
sg11
I0
sg12
I0
sg13
I0
ss(g22
g29
g16
g26
tp242
(dp243
g7
I0
sg8
I0
sg9
I0
sg11
I0
sg12
I0
sg13
I0
sg20
I0
sg21
I0
ss(g14
g15
g16
g96
tp244
(dp245
g7
F0.0
sg8
F0.0
sg9
F0.0
sg11
F0.0
sg12
F0.0
sg13
F0.0
sg20
F-20.0
sg21
F0.0
ss(g14
g29
g16
g33
tp246
(dp247
g7
I0
sg8
I0
sg9
I0
sg11
I0
sg12
I0
sg13
I0
sg20
I0
sg21
I0
ss(g14
g15
g16
g117
tp248
(dp249
g7
F0.0
sg8
F-20.0
sg9
F0.0
sg11
F-6.0
sg12
F0.0
sg13
F0.8999999999999999
sg20
F-6.0
sg21
F0.0
ss(g14
g29
g16
g36
tp250
(dp251
g7
F0.0
sg8
F0.0
sg9
F0.0
sg11
F0.0
sg12
F0.0
sg13
F0.0
sg20
F0.0
sg21
I0
ss(g14
g29
g16
g26
tp252
(dp253
g7
I0
sg8
I0
sg9
I0
sg11
I0
sg12
I0
sg13
I0
sg20
I0
sg21
I0
ss(g22
g29
g16
g33
tp254
(dp255
g7
I0
sg8
I0
sg9
I0
sg11
I0
sg12
I0
sg13
I0
sg20
I0
sg21
I0
ss(g22
g29
g3
g26
tp256
(dp257
g7
I0
sg8
I0
sg9
I0
sg10
I0
sg11
I0
sg12
I0
sg13
I0
ss(g1
g29
g3
g96
tp258
(dp259
g7
I0
sg8
I0
sg9
I0
sg10
I0
sg11
I0
sg12
I0
sg13
I0
ss(g1
g2
g16
g4
tp260
(dp261
g7
F0.0
sg8
F0.0
sg9
F0.0
sg11
F0.0
sg12
F0.0
sg13
F0.0
sg20
F-18.0
sg21
F-10.0
ss(g1
g15
g3
g30
tp262
(dp263
g7
F0.0
sg8
F0.0
sg9
F0.0
sg10
F0.0
sg11
F0.0
sg12
F0.0
sg13
F0.0
ss(g14
g2
g16
g36
tp264
(dp265
g7
F0.0
sg8
F0.0
sg9
F0.0
sg11
F0.0
sg12
F0.0
sg13
F0.0
sg20
F0.0
sg21
F0.0
ss(g14
g2
g3
g96
tp266
(dp267
g7
F0.0
sg8
F0.0
sg9
F0.0
sg10
F0.0
sg11
F0.0
sg12
F0.0
sg13
F0.0
ss(g1
g2
g3
g36
tp268
(dp269
g7
F0.0
sg8
F0.0
sg9
F0.0
sg10
F0.0
sg11
F0.0
sg12
F0.0
sg13
F0.0
ss(g1
g29
g3
g33
tp270
(dp271
g7
I0
sg8
I0
sg9
I0
sg10
I0
sg11
I0
sg12
I0
sg13
I0
ss(g14
g29
g16
g4
tp272
(dp273
g7
F0.0
sg8
F-5.3999999999999995
sg9
F0.0
sg11
F0.0
sg12
F-60.0
sg13
F-18.0
sg20
F-5.399999999999999
sg21
F-45.0
ss(g22
g15
g3
g36
tp274
(dp275
g7
F-25.86
sg8
F-30.0
sg9
F-16.1999955
sg10
F-13.44000045
sg11
F-7.758
sg12
F13.8000015
sg13
F-9.0
ss(g1
g29
g3
g4
tp276
(dp277
g7
F0.0
sg8
F0.0
sg9
F0.0
sg10
F0.0
sg11
F0.0
sg12
F-10.0
sg13
F0.0
ss(g22
g15
g16
g23
tp278
(dp279
g7
I0
sg8
I0
sg9
I0
sg11
I0
sg12
I0
sg13
I0
sg20
I0
sg21
I0
ss(g14
g29
g3
g33
tp280
(dp281
g7
I0
sg8
I0
sg9
I0
sg10
I0
sg11
I0
sg12
I0
sg13
I0
ss(g1
g15
g3
g33
tp282
(dp283
g7
F0.0
sg8
F0.0
sg9
F0.0
sg10
F0.0
sg11
F0.0
sg12
F0.0
sg13
F0.0
ss(g1
g29
g16
g33
tp284
(dp285
g7
I0
sg8
I0
sg9
I0
sg11
I0
sg12
I0
sg13
I0
sg20
I0
sg21
I0
ss(g14
g15
g16
g33
tp286
(dp287
g7
F0.0
sg8
F-1.7999999999999998
sg9
F0.0
sg11
F0.0
sg12
F0.0
sg13
F0.0
sg20
F0.0
sg21
F0.0
ss(g14
g2
g16
g48
tp288
(dp289
g7
F0.0
sg8
F0.0
sg9
F0.0
sg11
F0.0
sg12
F-4.5
sg13
F0.0
sg20
F0.0
sg21
F0.0
ss(g1
g2
g16
g33
tp290
(dp291
g7
F0.0
sg8
F0.0
sg9
I0
sg11
F0.0
sg12
F0.0
sg13
F0.0
sg20
F0.0
sg21
F0.0
ss(g22
g15
g16
g26
tp292
(dp293
g7
F0.0
sg8
F0.0
sg9
F0.0
sg11
F0.0
sg12
F0.0
sg13
F2.6999999999999997
sg20
I0
sg21
F0.0
ss(g22
g29
g16
g117
tp294
(dp295
g7
I0
sg8
I0
sg9
I0
sg11
I0
sg12
I0
sg13
I0
sg20
I0
sg21
I0
ss(g14
g29
g3
g17
tp296
(dp297
g7
I0
sg8
I0
sg9
I0
sg10
I0
sg11
I0
sg12
I0
sg13
I0
ss(g1
g2
g3
g117
tp298
(dp299
g7
F0.0
sg8
I0
sg9
F0.0
sg10
F0.0
sg11
F0.0
sg12
F0.0
sg13
F0.0
ss(g22
g2
g16
g4
tp300
(dp301
g7
F0.0
sg8
F0.0
sg9
F0.0
sg11
F0.0
sg12
F-10.0
sg13
F0.0
sg20
F0.0
sg21
I0
ss(g22
g29
g3
g4
tp302
(dp303
g7
F0.0
sg8
F75.0
sg9
F0.0
sg10
F0.0
sg11
F22.5
sg12
F0.0
sg13
F-0.8999999999999999
ss(g14
g15
g16
g26
tp304
(dp305
g7
F0.0
sg8
F0.0
sg9
F0.0
sg11
F0.0
sg12
F0.0
sg13
F0.0
sg20
F0.0
sg21
F0.0
ss(g1
g29
g3
g48
tp306
(dp307
g7
F0.0
sg8
F0.0
sg9
F0.0
sg10
F0.0
sg11
F0.0
sg12
F0.0
sg13
F0.0
ss(g22
g29
g3
g117
tp308
(dp309
g7
I0
sg8
I0
sg9
I0
sg10
I0
sg11
I0
sg12
I0
sg13
I0
ss(g22
g15
g3
g4
tp310
(dp311
g7
F-0.8999999999999999
sg8
F0.0
sg9
F0.0
sg10
F0.0
sg11
F30.0
sg12
F2.6999999999999997
sg13
F0.0
ss(g14
g2
g3
g41
tp312
(dp313
g7
F-10.0
sg8
F-10.0
sg9
F-0.8999999999999999
sg10
F0.0
sg11
F-3.0
sg12
F0.0
sg13
F0.0
ss(g1
g2
g16
g30
tp314
(dp315
g7
F0.0
sg8
F0.0
sg9
I0
sg11
F0.0
sg12
F0.0
sg13
F0.0
sg20
F0.0
sg21
I0
ss(g14
g15
g16
g30
tp316
(dp317
g7
F-12.0
sg8
F0.0
sg9
F0.0
sg11
F-12.0
sg12
F-9.3
sg13
F0.0
sg20
F0.0
sg21
F0.0
ss(g1
g2
g16
g23
tp318
(dp319
g7
F-10.0
sg8
F-0.8999999999999999
sg9
F-10.0
sg11
F-3.0
sg12
F0.0
sg13
F-3.0
sg20
F0.0
sg21
F0.0
ss(g1
g29
g3
g26
tp320
(dp321
g7
I0
sg8
I0
sg9
I0
sg10
I0
sg11
I0
sg12
I0
sg13
I0
ss(g14
g15
g16
g48
tp322
(dp323
g7
F0.0
sg8
F0.0
sg9
F0.0
sg11
F0.0
sg12
F-15.0
sg13
F0.0
sg20
F0.0
sg21
F0.0
ss(g1
g15
g3
g36
tp324
(dp325
g7
F0.0
sg8
F0.0
sg9
F0.0
sg10
F0.0
sg11
F0.0
sg12
F0.0
sg13
F0.0
ss(g22
g2
g16
g33
tp326
(dp327
g7
F-18.65
sg8
F0.0
sg9
F0.0
sg11
F0.0
sg12
F0.0
sg13
F0.0
sg20
F-6.0
sg21
F0.0
ss(g22
g29
g3
g30
tp328
(dp329
g7
I0
sg8
I0
sg9
I0
sg10
I0
sg11
I0
sg12
I0
sg13
I0
ss(g14
g15
g16
g36
tp330
(dp331
g7
F0.0
sg8
F0.0
sg9
F0.0
sg11
F-2.6999999999999997
sg12
F0.0
sg13
F0.0
sg20
F0.0
sg21
F0.0
ss(g1
g15
g3
g96
tp332
(dp333
g7
F0.0
sg8
F0.0
sg9
F0.0
sg10
F0.0
sg11
F0.0
sg12
F0.0
sg13
F0.0
ss(g1
g15
g16
g36
tp334
(dp335
g7
F0.0
sg8
F0.0
sg9
F0.0
sg11
F0.0
sg12
F0.0
sg13
F0.0
sg20
F0.0
sg21
F0.0
ss(g22
g15
g3
g30
tp336
(dp337
g7
F0.0
sg8
F0.0
sg9
F0.0
sg10
F-3.5999999999999996
sg11
F-40.0
sg12
F0.0
sg13
F0.0
ss(g22
g2
g16
g36
tp338
(dp339
g7
F0.0
sg8
F-2.400000000000002
sg9
F-30.0
sg11
F-30.0
sg12
F-9.0
sg13
F0.0
sg20
F-0.2160000000000002
sg21
F-2.400000000000002
ss(g22
g29
g16
g41
tp340
(dp341
g7
F0.0
sg8
F0.0
sg9
I0
sg11
I0
sg12
F-0.8999999999999999
sg13
I0
sg20
F0.0
sg21
F0.0
ss(g1
g29
g16
g117
tp342
(dp343
g7
I0
sg8
I0
sg9
I0
sg11
I0
sg12
I0
sg13
I0
sg20
I0
sg21
I0
ss(g22
g29
g3
g41
tp344
(dp345
g7
F0.0
sg8
I0
sg9
F0.0
sg10
F30.0
sg11
F0.0
sg12
I0
sg13
F0.0
ss(g22
g29
g16
g48
tp346
(dp347
g7
F-10.0
sg8
F-3.0
sg9
F-10.0
sg11
F-3.0
sg12
F0.0
sg13
F-10.0
sg20
F-10.0
sg21
F0.0
ss(g14
g15
g3
g33
tp348
(dp349
g7
F0.0
sg8
F0.0
sg9
F0.0
sg10
F0.0
sg11
F0.0
sg12
F0.0
sg13
F0.0
ss(g22
g15
g3
g117
tp350
(dp351
g7
F0.0
sg8
F0.0
sg9
F0.0
sg10
F0.0
sg11
F0.0
sg12
F0.0
sg13
F8.399999999999999
ss(g14
g29
g3
g26
tp352
(dp353
g7
I0
sg8
I0
sg9
I0
sg10
I0
sg11
I0
sg12
I0
sg13
I0
ss(g14
g29
g3
g4
tp354
(dp355
g7
F0.0
sg8
F0.0
sg9
F-60.0
sg10
F-10.0
sg11
F0.0
sg12
F0.0
sg13
F0.0
ss(g22
g29
g3
g48
tp356
(dp357
g7
F24.839999775
sg8
F0.0
sg9
F0.0
sg10
F-4.5
sg11
F0.0
sg12
F-8.79
sg13
F0.0
ss(g22
g2
g3
g4
tp358
(dp359
g7
F6.75
sg8
F75.0
sg9
F-0.8999999999999999
sg10
F-10.0
sg11
F22.5
sg12
F0.0
sg13
F0.0
ss(g14
g2
g3
g53
tp360
(dp361
g7
I0
sg8
I0
sg9
I0
sg10
I0
sg11
F10.0
sg12
I0
sg13
F0.0
ss(g22
g29
g16
g36
tp362
(dp363
g7
I0
sg8
F-2.6999999999999997
sg9
I0
sg11
I0
sg12
F-30.0
sg13
F-9.0
sg20
F0.0
sg21
F-9.0
ss(g14
g29
g3
g30
tp364
(dp365
g7
I0
sg8
I0
sg9
I0
sg10
I0
sg11
I0
sg12
I0
sg13
I0
ss(g22
g2
g16
g117
tp366
(dp367
g7
I0
sg8
I0
sg9
F0.0
sg11
I0
sg12
F0.0
sg13
I0
sg20
I0
sg21
I0
ss(g1
g29
g16
g4
tp368
(dp369
g7
F0.0
sg8
F-10.0
sg9
F0.0
sg11
F-3.0
sg12
F-10.0
sg13
F0.0
sg20
F0.0
sg21
F-3.0
ss(g14
g15
g16
g4
tp370
(dp371
g7
F0.0
sg8
F0.0
sg9
F0.0
sg11
F-60.0
sg12
F0.0
sg13
F0.0
sg20
F0.0
sg21
F0.0
ss(g22
g15
g3
g48
tp372
(dp373
g7
F-15.0
sg8
F6.209999594999999
sg9
F0.0
sg10
F0.0
sg11
F-15.0
sg12
F-4.5
sg13
F0.0
ss(g1
g29
g3
g17
tp374
(dp375
g7
I0
sg8
I0
sg9
I0
sg10
I0
sg11
I0
sg12
I0
sg13
I0
ss(g1
g15
g16
g33
tp376
(dp377
g7
F0.0
sg8
F0.0
sg9
F0.0
sg11
F0.0
sg12
F0.0
sg13
F0.0
sg20
F0.0
sg21
F0.0
ss(g22
g15
g16
g33
tp378
(dp379
g7
F-20.0
sg8
F-6.0
sg9
F-20.0
sg11
F-20.0
sg12
F-20.0
sg13
F-1.7999999999999998
sg20
F-20.0
sg21
F-20.0
ss(g22
g15
g16
g36
tp380
(dp381
g7
F-30.0
sg8
F-30.0
sg9
F-30.0
sg11
F-9.0
sg12
F-4.859995499999995
sg13
F-16.199984999999984
sg20
F0.0
sg21
F-0.7199986500000009
ss(g14
g15
g3
g48
tp382
(dp383
g7
F0.0
sg8
F0.0
sg9
F-15.0
sg10
F0.0
sg11
F0.0
sg12
F0.0
sg13
F0.0
ss(g1
g15
g16
g96
tp384
(dp385
g7
F0.0
sg8
F0.0
sg9
F0.0
sg11
F0.0
sg12
F0.0
sg13
F0.0
sg20
F0.0
sg21
F0.0
ss(g14
g29
g3
g23
tp386
(dp387
g7
I0
sg8
I0
sg9
I0
sg10
I0
sg11
I0
sg12
I0
sg13
I0
ss(g1
g15
g16
g48
tp388
(dp389
g7
F0.0
sg8
F0.0
sg9
F0.0
sg11
F0.0
sg12
F0.0
sg13
F0.0
sg20
F0.0
sg21
F0.0
ss(g1
g2
g16
g117
tp390
(dp391
g7
I0
sg8
F0.0
sg9
I0
sg11
I0
sg12
F0.0
sg13
F0.0
sg20
F0.0
sg21
I0
ss(g14
g29
g16
g23
tp392
(dp393
g7
I0
sg8
I0
sg9
I0
sg11
I0
sg12
I0
sg13
I0
sg20
I0
sg21
I0
ss(g22
g29
g16
g53
tp394
(dp395
g7
I0
sg8
I0
sg9
I0
sg11
I0
sg12
I0
sg13
I0
sg20
I0
sg21
I0
ss(g14
g2
g16
g117
tp396
(dp397
g7
F0.0
sg8
F-1.7999999999999998
sg9
F-6.0
sg11
F-20.0
sg12
F0.0
sg13
F0.0
sg20
F0.0
sg21
F0.0
ss(g14
g2
g16
g4
tp398
(dp399
g7
F0.0
sg8
F-0.8999999999999986
sg9
F0.0
sg11
F-18.0
sg12
F0.0
sg13
F0.0
sg20
F0.0
sg21
F-60.0
ss(g22
g29
g16
g4
tp400
(dp401
g7
F-4.5
sg8
F0.0
sg9
F0.0
sg11
F0.0
sg12
F0.0
sg13
F0.0
sg20
I0
sg21
F-15.0
ss(g1
g15
g3
g26
tp402
(dp403
g7
F0.0
sg8
F0.0
sg9
F0.0
sg10
F0.0
sg11
F0.0
sg12
F0.0
sg13
F0.0
ss(g14
g15
g3
g26
tp404
(dp405
g7
F0.0
sg8
F0.0
sg9
F0.0
sg10
F0.0
sg11
F0.0
sg12
F0.0
sg13
F0.0
ss(g14
g15
g3
g36
tp406
(dp407
g7
F0.0
sg8
F0.0
sg9
F0.0
sg10
F0.0
sg11
F0.0
sg12
F0.0
sg13
F0.0
ss(g1
g2
g3
g48
tp408
(dp409
g7
F0.0
sg8
F0.0
sg9
F0.0
sg10
F0.0
sg11
F3.0
sg12
F0.0
sg13
F0.0
ss(g22
g29
g3
g17
tp410
(dp411
g7
I0
sg8
I0
sg9
I0
sg10
I0
sg11
I0
sg12
I0
sg13
I0
ss(g1
g15
g3
g48
tp412
(dp413
g7
F0.0
sg8
F0.0
sg9
F0.0
sg10
F0.0
sg11
F0.0
sg12
F0.0
sg13
F0.0
ss(g1
g2
g3
g33
tp414
(dp415
g7
I0
sg8
F0.0
sg9
F0.0
sg10
F0.0
sg11
F0.0
sg12
F0.0
sg13
F0.0
ss(g22
g15
g16
g48
tp416
(dp417
g7
F-4.5
sg8
F-50.0
sg9
F-50.0
sg11
F-15.0
sg12
F-50.0
sg13
F-50.0
sg20
F-50.0
sg21
F-50.0
ss(g22
g2
g16
g96
tp418
(dp419
g7
I0
sg8
I0
sg9
F-6.0
sg11
F0.0
sg12
F-20.0
sg13
I0
sg20
I0
sg21
F-20.0
ss(g22
g2
g16
g53
tp420
(dp421
g7
I0
sg8
I0
sg9
I0
sg11
I0
sg12
I0
sg13
I0
sg20
I0
sg21
I0
ss(g14
g29
g16
g117
tp422
(dp423
g7
I0
sg8
I0
sg9
I0
sg11
I0
sg12
I0
sg13
I0
sg20
I0
sg21
I0
ss(g22
g15
g16
g4
tp424
(dp425
g7
F0.0
sg8
F0.0
sg9
F0.0
sg11
F0.0
sg12
F0.0
sg13
F0.0
sg20
F6.75
sg21
F0.0
ss(g1
g15
g16
g53
tp426
(dp427
g7
F0.0
sg8
F0.0
sg9
F0.0
sg11
F0.0
sg12
F0.0
sg13
F0.0
sg20
F0.0
sg21
F0.0
ss(g14
g15
g16
g23
tp428
(dp429
g7
F0.0
sg8
F0.0
sg9
F0.0
sg11
F0.0
sg12
F0.0
sg13
F0.0
sg20
F0.0
sg21
F0.0
ss(g14
g2
g3
g4
tp430
(dp431
g7
F0.0
sg8
F-3.0
sg9
F-0.8999999999999999
sg10
F0.0
sg11
F0.8999999999999999
sg12
F-10.0
sg13
F-5.3999999999999995
ss(g22
g15
g3
g96
tp432
(dp433
g7
F0.0
sg8
F-6.0
sg9
F-20.0
sg10
F1.3499999999999999
sg11
F0.0
sg12
F0.0
sg13
F4.5
ss(g22
g29
g16
g23
tp434
(dp435
g7
I0
sg8
I0
sg9
I0
sg11
I0
sg12
I0
sg13
I0
sg20
I0
sg21
I0
ss(g22
g2
g3
g26
tp436
(dp437
g7
I0
sg8
I0
sg9
I0
sg10
I0
sg11
I0
sg12
I0
sg13
I0
ss(g1
g2
g16
g48
tp438
(dp439
g7
F0.0
sg8
F0.0
sg9
F0.0
sg11
F0.0
sg12
F0.0
sg13
F0.0
sg20
F0.0
sg21
F0.0
ss(g22
g2
g3
g48
tp440
(dp441
g7
F-15.0
sg8
F-49.1
sg9
F-50.0
sg10
F-42.5480000675
sg11
F-50.0
sg12
F0.0
sg13
F-15.0
ss(g14
g15
g3
g17
tp442
(dp443
g7
F0.0
sg8
F0.0
sg9
F0.0
sg10
F0.0
sg11
F0.0
sg12
F0.0
sg13
F-10.0
ss(g1
g15
g16
g30
tp444
(dp445
g7
F0.0
sg8
F0.0
sg9
F0.0
sg11
F0.0
sg12
F0.0
sg13
F0.0
sg20
F0.0
sg21
F0.0
ss(g1
g2
g16
g26
tp446
(dp447
g7
I0
sg8
I0
sg9
I0
sg11
I0
sg12
I0
sg13
I0
sg20
I0
sg21
I0
ss(g1
g2
g16
g36
tp448
(dp449
g7
F0.0
sg8
F0.0
sg9
F0.0
sg11
F0.0
sg12
F0.0
sg13
F0.0
sg20
F0.0
sg21
F0.0
ss(g22
g29
g16
g96
tp450
(dp451
g7
I0
sg8
I0
sg9
I0
sg11
I0
sg12
I0
sg13
I0
sg20
I0
sg21
I0
ss(g1
g29
g16
g26
tp452
(dp453
g7
I0
sg8
I0
sg9
I0
sg11
I0
sg12
I0
sg13
I0
sg20
I0
sg21
I0
ss(g22
g2
g3
g117
tp454
(dp455
g7
I0
sg8
I0
sg9
I0
sg10
F0.0
sg11
I0
sg12
I0
sg13
F0.0
ss(g14
g29
g16
g41
tp456
(dp457
g7
F0.0
sg8
F0.0
sg9
F0.0
sg11
F0.0
sg12
F0.0
sg13
F0.0
sg20
F-3.0
sg21
F0.0
ss(g14
g2
g16
g96
tp458
(dp459
g7
F0.0
sg8
F0.0
sg9
F0.0
sg11
F0.0
sg12
F0.0
sg13
F0.0
sg20
F0.0
sg21
F-1.7999999999999998
ss(g22
g29
g3
g23
tp460
(dp461
g7
I0
sg8
I0
sg9
I0
sg10
I0
sg11
I0
sg12
I0
sg13
I0
ss.