(dp0
S'action'
p1
(dp2
(S'Far'
p3
S'Low'
p4
S'draw 5'
p5
S'Cave Spider'
p6
tp7
(dp8
S'fire'
p9
I0
ss(S'Melee'
p10
S'Hi'
p11
S'draw 1'
p12
g6
tp13
(dp14
g9
I0
sS'draw 2'
p15
I0
ss(S'Close'
p16
S'Med'
p17
g9
g6
tp18
(dp19
S'draw 1'
p20
I0
sS'sword'
p21
I0
ss(g3
g4
g9
S'Spider'
p22
tp23
(dp24
g20
I0
sg21
I0
ss(g10
g4
g9
S'Blaze'
p25
tp26
(dp27
g20
I0
sg21
I0
ss(g3
g11
S'draw 4'
p28
S'Creeper'
p29
tp30
(dp31
g9
I0
sS'draw 5'
p32
I0
ss(g3
g17
g12
S'Wolf'
p33
tp34
(dp35
g9
I0
sS'draw 2'
p36
I0
ss(g3
g4
g21
S'Zombie'
p37
tp38
(dp39
g20
I0
sg21
I0
ss(g3
g4
g9
g25
tp40
(dp41
g20
I0
sg21
I0
ss(g3
g11
S'draw 3'
p42
S'Endermite'
p43
tp44
(dp45
g9
I0
sS'draw 4'
p46
I0
ss(S'Bow'
p47
g11
g12
S'Silverfish'
p48
tp49
(dp50
g9
I0
sS'draw 2'
p51
I0
ss(g3
g4
g9
g6
tp52
(dp53
g20
I0
sg21
I0
ss(g3
g11
g28
S'Witch'
p54
tp55
(dp56
g9
I0
sS'draw 5'
p57
I0
ss(g10
g17
g42
g25
tp58
(dp59
g9
I0
sS'draw 4'
p60
I0
ss(g47
g17
g21
g22
tp61
(dp62
g20
I0
sg21
I0
ss(g3
g4
g12
g22
tp63
(dp64
g9
I0
sS'draw 2'
p65
I0
ss(g10
g17
g42
g29
tp66
(dp67
g9
I0
sS'draw 4'
p68
I0
ss(g3
g4
g12
S'Skeleton'
p69
tp70
(dp71
g9
I0
sS'draw 2'
p72
I0
ss(g47
g4
g12
g22
tp73
(dp74
g9
I0
sS'draw 2'
p75
I0
ss(g10
g17
S'draw 2'
p76
g48
tp77
(dp78
g9
I0
sS'draw 3'
p79
I0
ss(g3
g17
g5
g22
tp80
(dp81
g9
I0
ss(g3
g17
g12
S'Ghast'
p82
tp83
(dp84
g9
I0
sS'draw 2'
p85
I0
ss(g47
g17
g21
g54
tp86
(dp87
g20
I0
sg21
I0
ss(g47
g17
g42
g69
tp88
(dp89
g9
I0
sS'draw 4'
p90
I0
ss(g3
g4
g12
g48
tp91
(dp92
g9
I0
sS'draw 2'
p93
I0
ss(g47
g4
g28
g69
tp94
(dp95
g9
I0
sS'draw 5'
p96
I0
ss(g3
g11
g28
g48
tp97
(dp98
g9
I0
sS'draw 5'
p99
I0
ss(g47
g4
g9
g69
tp100
(dp101
g20
I0
sg21
I0
ss(g3
g17
g21
S'Zombie Pigman'
p102
tp103
(dp104
g20
I0
sg21
I0
ss(g10
g17
g21
g102
tp105
(dp106
g20
I0
sg21
I0
ss(g3
g4
g21
g25
tp107
(dp108
g20
I0
sg21
I0
ss(g47
g11
g12
g6
tp109
(dp110
g9
I0
sS'draw 2'
p111
I0
ss(g47
g11
g76
g54
tp112
(dp113
g9
I0
sS'draw 3'
p114
I0
ss(g16
g4
g12
g25
tp115
(dp116
g9
I0
sS'draw 2'
p117
I0
ss(g3
g17
g76
g102
tp118
(dp119
g9
I0
sS'draw 3'
p120
I0
ss(g16
g17
g21
g48
tp121
(dp122
g20
I0
sg21
I0
ss(g47
g4
g9
g48
tp123
(dp124
g20
I0
sg21
I0
ss(g16
g4
g12
g6
tp125
(dp126
g9
I0
sS'draw 2'
p127
I0
ss(g16
g4
g28
g48
tp128
(dp129
g9
I0
sS'draw 5'
p130
I0
ss(g47
g11
g21
g54
tp131
(dp132
g20
I0
sg21
I0
ss(g10
g4
g21
g43
tp133
(dp134
g20
I0
sg21
I0
ss(g16
g4
g28
g33
tp135
(dp136
g9
I0
sS'draw 5'
p137
I0
ss(g10
g4
g9
g82
tp138
(dp139
g20
I0
sg21
I0
ss(g47
g17
g21
g37
tp140
(dp141
g20
F7.050001349999999
sg21
F-0.8999999999999999
ss(g3
g11
g12
g82
tp142
(dp143
g9
I0
sS'draw 2'
p144
I0
ss(g47
g4
g76
g102
tp145
(dp146
g9
I0
sS'draw 3'
p147
I0
ss(g16
g4
g9
g82
tp148
(dp149
g20
I0
sg21
I0
ss(g10
g4
g76
g102
tp150
(dp151
g9
I0
sS'draw 3'
p152
I0
ss(g3
g11
g12
g43
tp153
(dp154
g9
I0
sS'draw 2'
p155
I0
ss(g10
g11
g28
g69
tp156
(dp157
g9
I0
sS'draw 5'
p158
I0
ss(g3
g11
g12
g33
tp159
(dp160
g9
I0
sS'draw 2'
p161
I0
ss(g16
g17
g42
g43
tp162
(dp163
g9
I0
sS'draw 4'
p164
I0
ss(g47
g11
g12
g43
tp165
(dp166
g9
I0
sS'draw 2'
p167
I0
ss(g16
g11
g5
g37
tp168
(dp169
g9
F15.24000000000001
ss(g10
g17
g9
g54
tp170
(dp171
g20
I0
sg21
I0
ss(g10
g11
g5
g33
tp172
(dp173
g9
I0
ss(g47
g17
g28
g33
tp174
(dp175
g9
I0
sS'draw 5'
p176
I0
ss(g47
g17
g9
g48
tp177
(dp178
g20
I0
sg21
I0
ss(g16
g11
g76
g22
tp179
(dp180
g9
I0
sS'draw 3'
p181
I0
ss(g16
g17
g28
g48
tp182
(dp183
g9
I0
sS'draw 5'
p184
I0
ss(g16
g4
g76
g54
tp185
(dp186
g9
I0
sS'draw 3'
p187
I0
ss(g10
g11
g5
g48
tp188
(dp189
g9
I0
ss(g3
g17
g21
g43
tp190
(dp191
g20
I0
sg21
I0
ss(g16
g11
g5
g22
tp192
(dp193
g9
I0
ss(g3
g17
g76
g33
tp194
(dp195
g9
I0
sS'draw 3'
p196
I0
ss(g47
g17
g21
g82
tp197
(dp198
g20
I0
sg21
I0
ss(g16
g11
g42
g43
tp199
(dp200
g9
I0
sS'draw 4'
p201
I0
ss(g47
g11
g21
g6
tp202
(dp203
g20
I0
sg21
I0
ss(g3
g4
g76
g29
tp204
(dp205
g9
I0
sS'draw 3'
p206
I0
ss(g16
g17
g28
g69
tp207
(dp208
g9
I0
sS'draw 5'
p209
I0
ss(g10
g11
g21
g33
tp210
(dp211
g20
I0
sg21
I0
ss(g3
g17
g28
g43
tp212
(dp213
g9
I0
sS'draw 5'
p214
I0
ss(g10
g11
g76
g102
tp215
(dp216
g9
I0
sS'draw 3'
p217
I0
ss(g10
g4
g12
g37
tp218
(dp219
g9
F12.196854532716113
sS'draw 2'
p220
F-8.46079821525
ss(g47
g4
g9
g29
tp221
(dp222
g20
I0
sg21
I0
ss(g10
g17
g76
g43
tp223
(dp224
g9
I0
sS'draw 3'
p225
I0
ss(g10
g4
g42
g22
tp226
(dp227
g9
I0
sS'draw 4'
p228
I0
ss(g3
g11
g76
g54
tp229
(dp230
g9
I0
sS'draw 3'
p231
I0
ss(g3
g11
g28
g6
tp232
(dp233
g9
I0
sS'draw 5'
p234
I0
ss(g47
g11
g42
g29
tp235
(dp236
g9
I0
sS'draw 4'
p237
I0
ss(g47
g11
g21
g69
tp238
(dp239
g20
I0
sg21
I0
ss(g3
g4
g12
g29
tp240
(dp241
g9
I0
sS'draw 2'
p242
I0
ss(g47
g4
g21
g102
tp243
(dp244
g20
I0
sg21
I0
ss(g16
g17
g5
g48
tp245
(dp246
g9
I0
ss(g16
g11
g12
g48
tp247
(dp248
g9
I0
sS'draw 2'
p249
I0
ss(g47
g17
g5
g82
tp250
(dp251
g9
I0
ss(g16
g17
g21
g29
tp252
(dp253
g20
I0
sg21
I0
ss(g3
g4
g42
g54
tp254
(dp255
g9
I0
sS'draw 4'
p256
I0
ss(g10
g11
g5
g6
tp257
(dp258
g9
I0
ss(g10
g11
g5
g29
tp259
(dp260
g9
I0
ss(g3
g4
g5
g102
tp261
(dp262
g9
I0
ss(g3
g17
g12
g22
tp263
(dp264
g9
I0
sS'draw 2'
p265
I0
ss(g3
g4
g21
g82
tp266
(dp267
g20
I0
sg21
I0
ss(g10
g4
g12
g29
tp268
(dp269
g9
I0
sS'draw 2'
p270
I0
ss(g10
g4
g76
g54
tp271
(dp272
g9
I0
sS'draw 3'
p273
I0
ss(g47
g11
g9
g29
tp274
(dp275
g20
I0
sg21
I0
ss(g16
g4
g9
g22
tp276
(dp277
g20
I0
sg21
I0
ss(g47
g4
g42
g43
tp278
(dp279
g9
I0
sS'draw 4'
p280
I0
ss(g16
g11
g21
g29
tp281
(dp282
g20
I0
sg21
I0
ss(g10
g17
g28
g43
tp283
(dp284
g9
I0
sS'draw 5'
p285
I0
ss(g47
g4
g28
g48
tp286
(dp287
g9
I0
sS'draw 5'
p288
I0
ss(g10
g17
g12
g37
tp289
(dp290
g9
F11.589364198500007
sS'draw 2'
p291
F12.988780120703847
ss(g16
g4
g76
g82
tp292
(dp293
g9
I0
sS'draw 3'
p294
I0
ss(g10
g17
g21
g25
tp295
(dp296
g20
I0
sg21
I0
ss(g10
g17
g42
g82
tp297
(dp298
g9
I0
sS'draw 4'
p299
I0
ss(g16
g4
g42
g22
tp300
(dp301
g9
I0
sS'draw 4'
p302
I0
ss(g16
g4
g5
g43
tp303
(dp304
g9
I0
ss(g3
g11
g5
g102
tp305
(dp306
g9
I0
ss(g47
g11
g5
g25
tp307
(dp308
g9
I0
ss(g47
g17
g76
g82
tp309
(dp310
g9
I0
sS'draw 3'
p311
I0
ss(g16
g4
g9
g54
tp312
(dp313
g20
I0
sg21
I0
ss(g3
g11
g21
g48
tp314
(dp315
g20
I0
sg21
I0
ss(g16
g17
g42
g69
tp316
(dp317
g9
I0
sS'draw 4'
p318
I0
ss(g47
g17
g42
g54
tp319
(dp320
g9
I0
sS'draw 4'
p321
I0
ss(g47
g11
g42
g48
tp322
(dp323
g9
I0
sS'draw 4'
p324
I0
ss(g10
g11
g9
g82
tp325
(dp326
g20
I0
sg21
I0
ss(g10
g11
g5
g22
tp327
(dp328
g9
I0
ss(g16
g4
g21
g102
tp329
(dp330
g20
I0
sg21
I0
ss(g3
g11
g5
g6
tp331
(dp332
g9
I0
ss(g3
g4
g42
g82
tp333
(dp334
g9
I0
sS'draw 4'
p335
I0
ss(g47
g4
g28
g102
tp336
(dp337
g9
I0
sS'draw 5'
p338
I0
ss(g10
g17
g12
g25
tp339
(dp340
g9
I0
sS'draw 2'
p341
I0
ss(g16
g11
g28
g43
tp342
(dp343
g9
I0
sS'draw 5'
p344
I0
ss(g10
g11
g12
g69
tp345
(dp346
g9
I0
sS'draw 2'
p347
I0
ss(g3
g17
g42
g48
tp348
(dp349
g9
I0
sS'draw 4'
p350
I0
ss(g10
g17
g28
g69
tp351
(dp352
g9
I0
sS'draw 5'
p353
I0
ss(g3
g4
g76
g33
tp354
(dp355
g9
I0
sS'draw 3'
p356
I0
ss(g47
g4
g21
g25
tp357
(dp358
g20
I0
sg21
I0
ss(g3
g11
g12
g22
tp359
(dp360
g9
I0
sS'draw 2'
p361
I0
ss(g47
g4
g21
g6
tp362
(dp363
g20
I0
sg21
I0
ss(g3
g11
g5
g69
tp364
(dp365
g9
I0
ss(g10
g17
g42
g54
tp366
(dp367
g9
I0
sS'draw 4'
p368
I0
ss(g3
g4
g21
g43
tp369
(dp370
g20
I0
sg21
I0
ss(g47
g17
g76
g37
tp371
(dp372
g9
F19.782053565000002
sS'draw 3'
p373
F16.529995005
ss(g10
g17
g28
g54
tp374
(dp375
g9
I0
sS'draw 5'
p376
I0
ss(g10
g17
g9
g22
tp377
(dp378
g20
I0
sg21
I0
ss(g10
g11
g42
g25
tp379
(dp380
g9
I0
sS'draw 4'
p381
I0
ss(g47
g11
g5
g48
tp382
(dp383
g9
I0
ss(g16
g17
g5
g33
tp384
(dp385
g9
I0
ss(g3
g11
g28
g37
tp386
(dp387
g9
I0
sS'draw 5'
p388
I0
ss(g47
g17
g76
g29
tp389
(dp390
g9
I0
sS'draw 3'
p391
I0
ss(g47
g17
g42
g82
tp392
(dp393
g9
I0
sS'draw 4'
p394
I0
ss(g16
g17
g28
g37
tp395
(dp396
g9
F15.2400045
sS'draw 5'
p397
F-3.0900000000000043
ss(g47
g4
g9
g6
tp398
(dp399
g20
I0
sg21
I0
ss(g3
g4
g21
g54
tp400
(dp401
g20
I0
sg21
I0
ss(g47
g17
g12
g37
tp402
(dp403
g9
F9.243241349999998
sS'draw 2'
p404
F3.7409904149999997
ss(g3
g17
g9
g6
tp405
(dp406
g20
I0
sg21
I0
ss(g47
g11
g12
g25
tp407
(dp408
g9
I0
sS'draw 2'
p409
I0
ss(g10
g4
g21
g48
tp410
(dp411
g20
I0
sg21
I0
ss(g10
g4
g9
g43
tp412
(dp413
g20
I0
sg21
I0
ss(g47
g17
g21
g48
tp414
(dp415
g20
I0
sg21
I0
ss(g47
g17
g5
g29
tp416
(dp417
g9
I0
ss(g10
g4
g42
g29
tp418
(dp419
g9
I0
sS'draw 4'
p420
I0
ss(g47
g17
g21
g33
tp421
(dp422
g20
I0
sg21
I0
ss(g10
g11
g28
g82
tp423
(dp424
g9
I0
sS'draw 5'
p425
I0
ss(g16
g17
g28
g54
tp426
(dp427
g9
I0
sS'draw 5'
p428
I0
ss(g10
g17
g5
g82
tp429
(dp430
g9
I0
ss(g10
g17
g9
g69
tp431
(dp432
g20
I0
sg21
I0
ss(g47
g17
g12
g6
tp433
(dp434
g9
I0
sS'draw 2'
p435
I0
ss(g47
g11
g9
g82
tp436
(dp437
g20
I0
sg21
I0
ss(g47
g4
g21
g22
tp438
(dp439
g20
I0
sg21
I0
ss(g10
g11
g21
g25
tp440
(dp441
g20
I0
sg21
I0
ss(g3
g11
g21
g6
tp442
(dp443
g20
I0
sg21
I0
ss(g10
g4
g42
g102
tp444
(dp445
g9
I0
sS'draw 4'
p446
I0
ss(g3
g4
g28
g69
tp447
(dp448
g9
I0
sS'draw 5'
p449
I0
ss(g3
g4
g28
g102
tp450
(dp451
g9
I0
sS'draw 5'
p452
I0
ss(g3
g17
g76
g48
tp453
(dp454
g9
I0
sS'draw 3'
p455
I0
ss(g47
g4
g28
g82
tp456
(dp457
g9
I0
sS'draw 5'
p458
I0
ss(g10
g17
g21
g48
tp459
(dp460
g20
I0
sg21
I0
ss(g47
g11
g28
g43
tp461
(dp462
g9
I0
sS'draw 5'
p463
I0
ss(g16
g17
g21
g22
tp464
(dp465
g20
I0
sg21
I0
ss(g16
g11
g12
g6
tp466
(dp467
g9
I0
sS'draw 2'
p468
I0
ss(g47
g4
g42
g37
tp469
(dp470
g9
F2.45999505
sS'draw 4'
p471
I0
ss(g16
g17
g9
g48
tp472
(dp473
g20
I0
sg21
I0
ss(g47
g4
g5
g22
tp474
(dp475
g9
I0
ss(g16
g4
g5
g54
tp476
(dp477
g9
I0
ss(g16
g17
g28
g33
tp478
(dp479
g9
I0
sS'draw 5'
p480
I0
ss(g16
g4
g28
g82
tp481
(dp482
g9
I0
sS'draw 5'
p483
I0
ss(g16
g11
g12
g82
tp484
(dp485
g9
I0
sS'draw 2'
p486
I0
ss(g3
g17
g28
g54
tp487
(dp488
g9
I0
sS'draw 5'
p489
I0
ss(g16
g4
g21
g6
tp490
(dp491
g20
I0
sg21
I0
ss(g3
g17
g12
g102
tp492
(dp493
g9
I0
sS'draw 2'
p494
I0
ss(g47
g4
g28
g6
tp495
(dp496
g9
I0
sS'draw 5'
p497
I0
ss(g3
g17
g9
g29
tp498
(dp499
g20
I0
sg21
I0
ss(g47
g11
g21
g48
tp500
(dp501
g20
I0
sg21
I0
ss(g3
g17
g42
g29
tp502
(dp503
g9
I0
sS'draw 4'
p504
I0
ss(g47
g4
g28
g25
tp505
(dp506
g9
I0
sS'draw 5'
p507
I0
ss(g16
g11
g42
g102
tp508
(dp509
g9
I0
sS'draw 4'
p510
I0
ss(g10
g4
g42
g33
tp511
(dp512
g9
I0
sS'draw 4'
p513
I0
ss(g10
g4
g76
g43
tp514
(dp515
g9
I0
sS'draw 3'
p516
I0
ss(g47
g11
g9
g6
tp517
(dp518
g20
I0
sg21
I0
ss(g47
g4
g5
g33
tp519
(dp520
g9
I0
ss(g16
g11
g28
g54
tp521
(dp522
g9
I0
sS'draw 5'
p523
I0
ss(g10
g17
g5
g6
tp524
(dp525
g9
I0
ss(g47
g11
g5
g33
tp526
(dp527
g9
I0
ss(g47
g11
g76
g69
tp528
(dp529
g9
I0
sS'draw 3'
p530
I0
ss(g3
g4
g21
g6
tp531
(dp532
g20
I0
sg21
I0
ss(g16
g17
g28
g102
tp533
(dp534
g9
I0
sS'draw 5'
p535
I0
ss(g3
g4
g42
g37
tp536
(dp537
g9
I0
sS'draw 4'
p538
I0
ss(g10
g4
g9
g102
tp539
(dp540
g20
I0
sg21
I0
ss(g47
g4
g21
g43
tp541
(dp542
g20
I0
sg21
I0
ss(g47
g4
g12
g48
tp543
(dp544
g9
I0
sS'draw 2'
p545
I0
ss(g10
g11
g21
g102
tp546
(dp547
g20
I0
sg21
I0
ss(g16
g11
g9
g25
tp548
(dp549
g20
I0
sg21
I0
ss(g47
g11
g76
g37
tp550
(dp551
g9
F31.420757969276544
sS'draw 3'
p552
F-0.5983151162493019
ss(g16
g11
g9
g54
tp553
(dp554
g20
I0
sg21
I0
ss(g47
g4
g9
g82
tp555
(dp556
g20
I0
sg21
I0
ss(g10
g11
g9
g37
tp557
(dp558
g20
F19.27527861876124
sg21
F11.908523669087863
ss(g10
g17
g28
g37
tp559
(dp560
g9
F-5.159999999999992
sS'draw 5'
p561
F60.72196515195
ss(g47
g11
g12
g54
tp562
(dp563
g9
I0
sS'draw 2'
p564
I0
ss(g10
g17
g76
g102
tp565
(dp566
g9
I0
sS'draw 3'
p567
I0
ss(g47
g11
g42
g6
tp568
(dp569
g9
I0
sS'draw 4'
p570
I0
ss(g3
g17
g42
g22
tp571
(dp572
g9
I0
sS'draw 4'
p573
I0
ss(g3
g11
g21
g102
tp574
(dp575
g20
I0
sg21
I0
ss(g3
g17
g5
g25
tp576
(dp577
g9
I0
ss(g3
g4
g76
g6
tp578
(dp579
g9
I0
sS'draw 3'
p580
I0
ss(g16
g17
g76
g102
tp581
(dp582
g9
I0
sS'draw 3'
p583
I0
ss(g47
g17
g9
g25
tp584
(dp585
g20
I0
sg21
I0
ss(g3
g17
g9
g37
tp586
(dp587
g20
I0
sg21
I0
ss(g16
g4
g76
g43
tp588
(dp589
g9
I0
sS'draw 3'
p590
I0
ss(g16
g4
g21
g54
tp591
(dp592
g20
I0
sg21
I0
ss(g16
g11
g9
g37
tp593
(dp594
g20
F-4.751986287289128
sg21
F-7.724000350427244
ss(g47
g11
g9
g54
tp595
(dp596
g20
I0
sg21
I0
ss(g47
g4
g12
g43
tp597
(dp598
g9
I0
sS'draw 2'
p599
I0
ss(g3
g11
g42
g25
tp600
(dp601
g9
I0
sS'draw 4'
p602
I0
ss(g10
g17
g9
g29
tp603
(dp604
g20
I0
sg21
I0
ss(g3
g4
g28
g43
tp605
(dp606
g9
I0
sS'draw 5'
p607
I0
ss(g16
g4
g42
g48
tp608
(dp609
g9
I0
sS'draw 4'
p610
I0
ss(g47
g11
g5
g69
tp611
(dp612
g9
I0
ss(g47
g17
g28
g102
tp613
(dp614
g9
I0
sS'draw 5'
p615
I0
ss(g3
g4
g42
g6
tp616
(dp617
g9
I0
sS'draw 4'
p618
I0
ss(g16
g4
g5
g6
tp619
(dp620
g9
I0
ss(g16
g4
g21
g43
tp621
(dp622
g20
I0
sg21
I0
ss(g10
g4
g28
g33
tp623
(dp624
g9
I0
sS'draw 5'
p625
I0
ss(g10
g4
g12
g102
tp626
(dp627
g9
I0
sS'draw 2'
p628
I0
ss(g10
g11
g9
g25
tp629
(dp630
g20
I0
sg21
I0
ss(g3
g4
g12
g82
tp631
(dp632
g9
I0
sS'draw 2'
p633
I0
ss(g3
g17
g21
g54
tp634
(dp635
g20
I0
sg21
I0
ss(g10
g4
g76
g48
tp636
(dp637
g9
I0
sS'draw 3'
p638
I0
ss(g16
g11
g76
g43
tp639
(dp640
g9
I0
sS'draw 3'
p641
I0
ss(g3
g11
g42
g37
tp642
(dp643
g9
I0
sS'draw 4'
p644
I0
ss(g10
g4
g28
g25
tp645
(dp646
g9
I0
sS'draw 5'
p647
I0
ss(g16
g17
g28
g6
tp648
(dp649
g9
I0
sS'draw 5'
p650
I0
ss(g47
g17
g76
g69
tp651
(dp652
g9
I0
sS'draw 3'
p653
I0
ss(g10
g17
g42
g6
tp654
(dp655
g9
I0
sS'draw 4'
p656
I0
ss(g16
g11
g9
g102
tp657
(dp658
g20
I0
sg21
I0
ss(g10
g4
g28
g54
tp659
(dp660
g9
I0
sS'draw 5'
p661
I0
ss(g10
g11
g28
g37
tp662
(dp663
g9
F76.56967836237544
sS'draw 5'
p664
F24.22439189999999
ss(g3
g4
g5
g54
tp665
(dp666
g9
I0
ss(g16
g11
g5
g33
tp667
(dp668
g9
I0
ss(g16
g4
g76
g25
tp669
(dp670
g9
I0
sS'draw 3'
p671
I0
ss(g3
g17
g21
g33
tp672
(dp673
g20
I0
sg21
I0
ss(g3
g4
g9
g33
tp674
(dp675
g20
I0
sg21
I0
ss(g47
g4
g28
g29
tp676
(dp677
g9
I0
sS'draw 5'
p678
I0
ss(g10
g11
g28
g25
tp679
(dp680
g9
I0
sS'draw 5'
p681
I0
ss(g10
g17
g12
g43
tp682
(dp683
g9
I0
sS'draw 2'
p684
I0
ss(g10
g17
g5
g33
tp685
(dp686
g9
I0
ss(g47
g4
g5
g43
tp687
(dp688
g9
I0
ss(g10
g11
g12
g29
tp689
(dp690
g9
I0
sS'draw 2'
p691
I0
ss(g16
g17
g42
g48
tp692
(dp693
g9
I0
sS'draw 4'
p694
I0
ss(g3
g4
g5
g43
tp695
(dp696
g9
I0
ss(g10
g11
g28
g29
tp697
(dp698
g9
I0
sS'draw 5'
p699
I0
ss(g3
g11
g12
g48
tp700
(dp701
g9
I0
sS'draw 2'
p702
I0
ss(g3
g11
g42
g82
tp703
(dp704
g9
I0
sS'draw 4'
p705
I0
ss(g10
g4
g28
g37
tp706
(dp707
g9
F69.6494119463507
sS'draw 5'
p708
I0
ss(g3
g17
g5
g33
tp709
(dp710
g9
I0
ss(g47
g4
g5
g54
tp711
(dp712
g9
I0
ss(g3
g17
g12
g69
tp713
(dp714
g9
I0
sS'draw 2'
p715
I0
ss(g16
g17
g5
g43
tp716
(dp717
g9
I0
ss(g3
g11
g21
g82
tp718
(dp719
g20
I0
sg21
I0
ss(g16
g4
g42
g37
tp720
(dp721
g9
F6.959999999999998
sS'draw 4'
p722
I0
ss(g3
g17
g28
g48
tp723
(dp724
g9
I0
sS'draw 5'
p725
I0
ss(g10
g17
g9
g48
tp726
(dp727
g20
I0
sg21
I0
ss(g3
g4
g21
g22
tp728
(dp729
g20
I0
sg21
I0
ss(g16
g17
g76
g29
tp730
(dp731
g9
I0
sS'draw 3'
p732
I0
ss(g3
g4
g28
g22
tp733
(dp734
g9
I0
sS'draw 5'
p735
I0
ss(g16
g11
g76
g54
tp736
(dp737
g9
I0
sS'draw 3'
p738
I0
ss(g16
g11
g21
g82
tp739
(dp740
g20
I0
sg21
I0
ss(g10
g17
g5
g43
tp741
(dp742
g9
I0
ss(g47
g11
g21
g29
tp743
(dp744
g20
I0
sg21
I0
ss(g47
g11
g28
g37
tp745
(dp746
g9
F34.170000000000016
sS'draw 5'
p747
F111.25042835146591
ss(g10
g17
g21
g69
tp748
(dp749
g20
I0
sg21
I0
ss(g10
g17
g76
g29
tp750
(dp751
g9
I0
sS'draw 3'
p752
I0
ss(g47
g17
g5
g6
tp753
(dp754
g9
I0
ss(g10
g11
g9
g102
tp755
(dp756
g20
I0
sg21
I0
ss(g10
g4
g42
g54
tp757
(dp758
g9
I0
sS'draw 4'
p759
I0
ss(g47
g11
g21
g33
tp760
(dp761
g20
I0
sg21
I0
ss(g10
g4
g76
g25
tp762
(dp763
g9
I0
sS'draw 3'
p764
I0
ss(g16
g11
g28
g33
tp765
(dp766
g9
I0
sS'draw 5'
p767
I0
ss(g16
g11
g42
g37
tp768
(dp769
g9
F13.619228205000002
sS'draw 4'
p770
I0
ss(g16
g4
g21
g69
tp771
(dp772
g20
I0
sg21
I0
ss(g47
g4
g28
g43
tp773
(dp774
g9
I0
sS'draw 5'
p775
I0
ss(g47
g11
g5
g54
tp776
(dp777
g9
I0
ss(g10
g4
g76
g6
tp778
(dp779
g9
I0
sS'draw 3'
p780
I0
ss(g47
g17
g28
g6
tp781
(dp782
g9
I0
sS'draw 5'
p783
I0
ss(g3
g17
g12
g54
tp784
(dp785
g9
I0
sS'draw 2'
p786
I0
ss(g16
g11
g21
g69
tp787
(dp788
g20
I0
sg21
I0
ss(g10
g17
g28
g33
tp789
(dp790
g9
I0
sS'draw 5'
p791
I0
ss(g3
g4
g42
g102
tp792
(dp793
g9
I0
sS'draw 4'
p794
I0
ss(g47
g4
g28
g22
tp795
(dp796
g9
I0
sS'draw 5'
p797
I0
ss(g47
g4
g12
g102
tp798
(dp799
g9
I0
sS'draw 2'
p800
I0
ss(g16
g4
g42
g102
tp801
(dp802
g9
I0
sS'draw 4'
p803
I0
ss(g47
g11
g9
g69
tp804
(dp805
g20
I0
sg21
I0
ss(g10
g4
g42
g43
tp806
(dp807
g9
I0
sS'draw 4'
p808
I0
ss(g16
g4
g21
g37
tp809
(dp810
g20
F7.679999999999999
sg21
I0
ss(g10
g17
g5
g69
tp811
(dp812
g9
I0
ss(g10
g17
g76
g25
tp813
(dp814
g9
I0
sS'draw 3'
p815
I0
ss(g3
g17
g28
g25
tp816
(dp817
g9
I0
sS'draw 5'
p818
I0
ss(g16
g4
g9
g6
tp819
(dp820
g20
I0
sg21
I0
ss(g10
g17
g42
g102
tp821
(dp822
g9
I0
sS'draw 4'
p823
I0
ss(g10
g4
g42
g37
tp824
(dp825
g9
I0
sS'draw 4'
p826
F56.0654500190616
ss(g10
g17
g76
g54
tp827
(dp828
g9
I0
sS'draw 3'
p829
I0
ss(g3
g4
g76
g25
tp830
(dp831
g9
I0
sS'draw 3'
p832
I0
ss(g16
g4
g5
g33
tp833
(dp834
g9
I0
ss(g3
g11
g5
g54
tp835
(dp836
g9
I0
ss(g47
g17
g76
g25
tp837
(dp838
g9
I0
sS'draw 3'
p839
I0
ss(g3
g17
g5
g43
tp840
(dp841
g9
I0
ss(g16
g17
g76
g48
tp842
(dp843
g9
I0
sS'draw 3'
p844
I0
ss(g16
g4
g42
g6
tp845
(dp846
g9
I0
sS'draw 4'
p847
I0
ss(g47
g17
g5
g102
tp848
(dp849
g9
I0
ss(g47
g17
g12
g29
tp850
(dp851
g9
I0
sS'draw 2'
p852
I0
ss(g16
g11
g28
g29
tp853
(dp854
g9
I0
sS'draw 5'
p855
I0
ss(g47
g4
g21
g33
tp856
(dp857
g20
I0
sg21
I0
ss(g3
g4
g5
g82
tp858
(dp859
g9
I0
ss(g3
g11
g5
g82
tp860
(dp861
g9
I0
ss(g3
g17
g5
g37
tp862
(dp863
g9
I0
ss(g3
g11
g21
g43
tp864
(dp865
g20
I0
sg21
I0
ss(g10
g4
g12
g69
tp866
(dp867
g9
I0
sS'draw 2'
p868
I0
ss(g10
g11
g12
g48
tp869
(dp870
g9
I0
sS'draw 2'
p871
I0
ss(g3
g11
g9
g54
tp872
(dp873
g20
I0
sg21
I0
ss(g47
g4
g12
g82
tp874
(dp875
g9
I0
sS'draw 2'
p876
I0
ss(g16
g17
g28
g29
tp877
(dp878
g9
I0
sS'draw 5'
p879
I0
ss(g10
g11
g21
g43
tp880
(dp881
g20
I0
sg21
I0
ss(g47
g11
g28
g102
tp882
(dp883
g9
I0
sS'draw 5'
p884
I0
ss(g3
g11
g5
g29
tp885
(dp886
g9
I0
ss(g16
g17
g76
g33
tp887
(dp888
g9
I0
sS'draw 3'
p889
I0
ss(g10
g4
g5
g6
tp890
(dp891
g9
I0
ss(g47
g11
g76
g22
tp892
(dp893
g9
I0
sS'draw 3'
p894
I0
ss(g10
g4
g28
g29
tp895
(dp896
g9
I0
sS'draw 5'
p897
I0
ss(g3
g17
g42
g33
tp898
(dp899
g9
I0
sS'draw 4'
p900
I0
ss(g16
g4
g5
g25
tp901
(dp902
g9
I0
ss(g10
g11
g42
g54
tp903
(dp904
g9
I0
sS'draw 4'
p905
I0
ss(g3
g11
g9
g22
tp906
(dp907
g20
I0
sg21
I0
ss(g16
g17
g9
g82
tp908
(dp909
g20
I0
sg21
I0
ss(g10
g11
g12
g82
tp910
(dp911
g9
I0
sS'draw 2'
p912
I0
ss(g47
g4
g12
g33
tp913
(dp914
g9
I0
sS'draw 2'
p915
I0
ss(g3
g11
g21
g33
tp916
(dp917
g20
I0
sg21
I0
ss(g3
g4
g12
g33
tp918
(dp919
g9
I0
sS'draw 2'
p920
I0
ss(g3
g4
g76
g22
tp921
(dp922
g9
I0
sS'draw 3'
p923
I0
ss(g47
g4
g42
g6
tp924
(dp925
g9
I0
sS'draw 4'
p926
I0
ss(g10
g4
g42
g82
tp927
(dp928
g9
I0
sS'draw 4'
p929
I0
ss(g16
g4
g5
g69
tp930
(dp931
g9
I0
ss(g3
g4
g9
g37
tp932
(dp933
g20
I0
sg21
I0
ss(g10
g17
g9
g6
tp934
(dp935
g20
I0
sg21
I0
ss(g3
g4
g76
g43
tp936
(dp937
g9
I0
sS'draw 3'
p938
I0
ss(g3
g17
g12
g29
tp939
(dp940
g9
I0
sS'draw 2'
p941
I0
ss(g47
g11
g9
g48
tp942
(dp943
g20
I0
sg21
I0
ss(g10
g4
g76
g33
tp944
(dp945
g9
I0
sS'draw 3'
p946
I0
ss(g16
g4
g12
g54
tp947
(dp948
g9
I0
sS'draw 2'
p949
I0
ss(g47
g17
g12
g48
tp950
(dp951
g9
I0
sS'draw 2'
p952
I0
ss(g10
g17
g5
g48
tp953
(dp954
g9
I0
ss(g3
g17
g28
g6
tp955
(dp956
g9
I0
sS'draw 5'
p957
I0
ss(g47
g11
g21
g25
tp958
(dp959
g20
I0
sg21
I0
ss(g16
g17
g12
g6
tp960
(dp961
g9
I0
sS'draw 2'
p962
I0
ss(g16
g17
g5
g29
tp963
(dp964
g9
I0
ss(g16
g11
g21
g37
tp965
(dp966
g20
F-20.556481675650012
sg21
F0.41369657934446025
ss(g16
g17
g12
g22
tp967
(dp968
g9
I0
sS'draw 2'
p969
I0
ss(g16
g17
g76
g43
tp970
(dp971
g9
I0
sS'draw 3'
p972
I0
ss(g16
g4
g12
g22
tp973
(dp974
g9
I0
sS'draw 2'
p975
I0
ss(g3
g17
g76
g25
tp976
(dp977
g9
I0
sS'draw 3'
p978
I0
ss(g16
g4
g12
g37
tp979
(dp980
g9
F-0.07199946000000779
sS'draw 2'
p981
F-8.994
ss(g16
g17
g9
g102
tp982
(dp983
g20
I0
sg21
I0
ss(g47
g11
g5
g22
tp984
(dp985
g9
I0
ss(g47
g11
g76
g25
tp986
(dp987
g9
I0
sS'draw 3'
p988
I0
ss(g10
g17
g42
g22
tp989
(dp990
g9
I0
sS'draw 4'
p991
I0
ss(g3
g4
g76
g54
tp992
(dp993
g9
I0
sS'draw 3'
p994
I0
ss(g3
g17
g21
g37
tp995
(dp996
g20
I0
sg21
I0
ss(g3
g4
g21
g69
tp997
(dp998
g20
I0
sg21
I0
ss(g47
g4
g5
g25
tp999
(dp1000
g9
I0
ss(g16
g11
g76
g33
tp1001
(dp1002
g9
I0
sS'draw 3'
p1003
I0
ss(g3
g11
g21
g29
tp1004
(dp1005
g20
I0
sg21
I0
ss(g10
g11
g5
g82
tp1006
(dp1007
g9
I0
ss(g16
g11
g28
g69
tp1008
(dp1009
g9
I0
sS'draw 5'
p1010
I0
ss(g16
g11
g9
g69
tp1011
(dp1012
g20
I0
sg21
I0
ss(g3
g17
g28
g69
tp1013
(dp1014
g9
I0
sS'draw 5'
p1015
I0
ss(g47
g17
g9
g102
tp1016
(dp1017
g20
I0
sg21
I0
ss(g10
g11
g76
g37
tp1018
(dp1019
g9
F29.845145837275503
sS'draw 3'
p1020
F64.30621101468628
ss(g10
g11
g5
g102
tp1021
(dp1022
g9
I0
ss(g16
g11
g5
g54
tp1023
(dp1024
g9
I0
ss(g10
g4
g9
g22
tp1025
(dp1026
g20
I0
sg21
I0
ss(g10
g4
g28
g43
tp1027
(dp1028
g9
I0
sS'draw 5'
p1029
I0
ss(g47
g11
g42
g37
tp1030
(dp1031
g9
F34.95239999999998
sS'draw 4'
p1032
F98.7523728668697
ss(g16
g11
g9
g48
tp1033
(dp1034
g20
I0
sg21
I0
ss(g3
g4
g5
g22
tp1035
(dp1036
g9
I0
ss(g10
g11
g9
g54
tp1037
(dp1038
g20
I0
sg21
I0
ss(g3
g4
g76
g37
tp1039
(dp1040
g9
I0
sS'draw 3'
p1041
I0
ss(g10
g17
g5
g54
tp1042
(dp1043
g9
I0
ss(g3
g11
g42
g29
tp1044
(dp1045
g9
I0
sS'draw 4'
p1046
I0
ss(g47
g4
g9
g43
tp1047
(dp1048
g20
I0
sg21
I0
ss(g3
g11
g42
g102
tp1049
(dp1050
g9
I0
sS'draw 4'
p1051
I0
ss(g47
g17
g9
g82
tp1052
(dp1053
g20
I0
sg21
I0
ss(g10
g17
g21
g6
tp1054
(dp1055
g20
I0
sg21
I0
ss(g16
g17
g21
g33
tp1056
(dp1057
g20
I0
sg21
I0
ss(g16
g4
g28
g69
tp1058
(dp1059
g9
I0
sS'draw 5'
p1060
I0
ss(g16
g11
g76
g102
tp1061
(dp1062
g9
I0
sS'draw 3'
p1063
I0
ss(g16
g17
g12
g82
tp1064
(dp1065
g9
I0
sS'draw 2'
p1066
I0
ss(g3
g4
g12
g43
tp1067
(dp1068
g9
I0
sS'draw 2'
p1069
I0
ss(g47
g4
g21
g48
tp1070
(dp1071
g20
I0
sg21
I0
ss(g47
g17
g12
g82
tp1072
(dp1073
g9
I0
sS'draw 2'
p1074
I0
ss(g10
g4
g12
g25
tp1075
(dp1076
g9
I0
sS'draw 2'
p1077
I0
ss(g3
g17
g12
g6
tp1078
(dp1079
g9
I0
sS'draw 2'
p1080
I0
ss(g10
g11
g9
g33
tp1081
(dp1082
g20
I0
sg21
I0
ss(g10
g11
g28
g48
tp1083
(dp1084
g9
I0
sS'draw 5'
p1085
I0
ss(g16
g11
g28
g22
tp1086
(dp1087
g9
I0
sS'draw 5'
p1088
I0
ss(g47
g4
g28
g33
tp1089
(dp1090
g9
I0
sS'draw 5'
p1091
I0
ss(g47
g17
g28
g69
tp1092
(dp1093
g9
I0
sS'draw 5'
p1094
I0
ss(g3
g17
g28
g22
tp1095
(dp1096
g9
I0
sS'draw 5'
p1097
I0
ss(g10
g17
g12
g54
tp1098
(dp1099
g9
I0
sS'draw 2'
p1100
I0
ss(g10
g17
g9
g82
tp1101
(dp1102
g20
I0
sg21
I0
ss(g3
g11
g5
g37
tp1103
(dp1104
g9
I0
ss(g10
g17
g9
g102
tp1105
(dp1106
g20
I0
sg21
I0
ss(g10
g4
g42
g6
tp1107
(dp1108
g9
I0
sS'draw 4'
p1109
I0
ss(g16
g11
g12
g33
tp1110
(dp1111
g9
I0
sS'draw 2'
p1112
I0
ss(g3
g4
g28
g6
tp1113
(dp1114
g9
I0
sS'draw 5'
p1115
I0
ss(g10
g4
g12
g33
tp1116
(dp1117
g9
I0
sS'draw 2'
p1118
I0
ss(g3
g4
g76
g102
tp1119
(dp1120
g9
I0
sS'draw 3'
p1121
I0
ss(g16
g4
g9
g69
tp1122
(dp1123
g20
I0
sg21
I0
ss(g16
g11
g76
g29
tp1124
(dp1125
g9
I0
sS'draw 3'
p1126
I0
ss(g10
g4
g21
g29
tp1127
(dp1128
g20
I0
sg21
I0
ss(g47
g4
g76
g22
tp1129
(dp1130
g9
I0
sS'draw 3'
p1131
I0
ss(g3
g11
g9
g82
tp1132
(dp1133
g20
I0
sg21
I0
ss(g47
g17
g12
g43
tp1134
(dp1135
g9
I0
sS'draw 2'
p1136
I0
ss(g47
g11
g21
g43
tp1137
(dp1138
g20
I0
sg21
I0
ss(g10
g17
g12
g33
tp1139
(dp1140
g9
I0
sS'draw 2'
p1141
I0
ss(g16
g11
g42
g69
tp1142
(dp1143
g9
I0
sS'draw 4'
p1144
I0
ss(g16
g17
g42
g54
tp1145
(dp1146
g9
I0
sS'draw 4'
p1147
I0
ss(g47
g17
g5
g22
tp1148
(dp1149
g9
I0
ss(g16
g17
g76
g69
tp1150
(dp1151
g9
I0
sS'draw 3'
p1152
I0
ss(g47
g17
g76
g33
tp1153
(dp1154
g9
I0
sS'draw 3'
p1155
I0
ss(g10
g4
g5
g82
tp1156
(dp1157
g9
I0
ss(g16
g4
g42
g69
tp1158
(dp1159
g9
I0
sS'draw 4'
p1160
I0
ss(g47
g17
g42
g33
tp1161
(dp1162
g9
I0
sS'draw 4'
p1163
I0
ss(g16
g11
g21
g102
tp1164
(dp1165
g20
I0
sg21
I0
ss(g3
g17
g12
g37
tp1166
(dp1167
g9
I0
sS'draw 2'
p1168
I0
ss(g47
g11
g76
g6
tp1169
(dp1170
g9
I0
sS'draw 3'
p1171
I0
ss(g16
g11
g21
g43
tp1172
(dp1173
g20
I0
sg21
I0
ss(g47
g11
g28
g48
tp1174
(dp1175
g9
I0
sS'draw 5'
p1176
I0
ss(g10
g4
g21
g25
tp1177
(dp1178
g20
I0
sg21
I0
ss(g10
g4
g12
g48
tp1179
(dp1180
g9
I0
sS'draw 2'
p1181
I0
ss(g16
g17
g42
g22
tp1182
(dp1183
g9
I0
sS'draw 4'
p1184
I0
ss(g10
g17
g21
g37
tp1185
(dp1186
g20
F19.025141070601013
sg21
F-4.385575554391232
ss(g47
g4
g5
g29
tp1187
(dp1188
g9
I0
ss(g10
g11
g21
g29
tp1189
(dp1190
g20
I0
sg21
I0
ss(g10
g11
g21
g37
tp1191
(dp1192
g20
F2.5778886334182616
sg21
F-0.1633122824453661
ss(g3
g17
g9
g43
tp1193
(dp1194
g20
I0
sg21
I0
ss(g10
g11
g42
g33
tp1195
(dp1196
g9
I0
sS'draw 4'
p1197
I0
ss(g10
g4
g76
g69
tp1198
(dp1199
g9
I0
sS'draw 3'
p1200
I0
ss(g16
g4
g21
g48
tp1201
(dp1202
g20
I0
sg21
I0
ss(g10
g17
g5
g22
tp1203
(dp1204
g9
I0
ss(g47
g4
g5
g102
tp1205
(dp1206
g9
I0
ss(g16
g4
g42
g82
tp1207
(dp1208
g9
I0
sS'draw 4'
p1209
I0
ss(g16
g11
g42
g22
tp1210
(dp1211
g9
I0
sS'draw 4'
p1212
I0
ss(g16
g17
g12
g43
tp1213
(dp1214
g9
I0
sS'draw 2'
p1215
I0
ss(g16
g17
g76
g22
tp1216
(dp1217
g9
I0
sS'draw 3'
p1218
I0
ss(g16
g4
g76
g22
tp1219
(dp1220
g9
I0
sS'draw 3'
p1221
I0
ss(g16
g11
g76
g6
tp1222
(dp1223
g9
I0
sS'draw 3'
p1224
I0
ss(g47
g11
g9
g102
tp1225
(dp1226
g20
I0
sg21
I0
ss(g47
g11
g28
g33
tp1227
(dp1228
g9
I0
sS'draw 5'
p1229
I0
ss(g3
g17
g76
g6
tp1230
(dp1231
g9
I0
sS'draw 3'
p1232
I0
ss(g10
g4
g21
g37
tp1233
(dp1234
g20
F7.875102745849735
sg21
F-3.6027
ss(g10
g17
g42
g43
tp1235
(dp1236
g9
I0
sS'draw 4'
p1237
I0
ss(g10
g11
g76
g29
tp1238
(dp1239
g9
I0
sS'draw 3'
p1240
I0
ss(g10
g4
g5
g22
tp1241
(dp1242
g9
I0
ss(g3
g4
g42
g33
tp1243
(dp1244
g9
I0
sS'draw 4'
p1245
I0
ss(g47
g11
g76
g48
tp1246
(dp1247
g9
I0
sS'draw 3'
p1248
I0
ss(g10
g17
g12
g69
tp1249
(dp1250
g9
I0
sS'draw 2'
p1251
I0
ss(g3
g4
g9
g43
tp1252
(dp1253
g20
I0
sg21
I0
ss(g3
g11
g76
g69
tp1254
(dp1255
g9
I0
sS'draw 3'
p1256
I0
ss(g3
g11
g76
g43
tp1257
(dp1258
g9
I0
sS'draw 3'
p1259
I0
ss(g3
g4
g42
g43
tp1260
(dp1261
g9
I0
sS'draw 4'
p1262
I0
ss(g16
g17
g76
g54
tp1263
(dp1264
g9
I0
sS'draw 3'
p1265
I0
ss(g47
g17
g28
g82
tp1266
(dp1267
g9
I0
sS'draw 5'
p1268
I0
ss(g10
g17
g5
g102
tp1269
(dp1270
g9
I0
ss(g10
g4
g76
g82
tp1271
(dp1272
g9
I0
sS'draw 3'
p1273
I0
ss(g3
g4
g76
g48
tp1274
(dp1275
g9
I0
sS'draw 3'
p1276
I0
ss(g16
g11
g28
g102
tp1277
(dp1278
g9
I0
sS'draw 5'
p1279
I0
ss(g10
g11
g21
g48
tp1280
(dp1281
g20
I0
sg21
I0
ss(g10
g4
g5
g102
tp1282
(dp1283
g9
I0
ss(g10
g4
g28
g22
tp1284
(dp1285
g9
I0
sS'draw 5'
p1286
I0
ss(g3
g17
g28
g102
tp1287
(dp1288
g9
I0
sS'draw 5'
p1289
I0
ss(g3
g11
g21
g25
tp1290
(dp1291
g20
I0
sg21
I0
ss(g47
g4
g42
g29
tp1292
(dp1293
g9
I0
sS'draw 4'
p1294
I0
ss(g47
g4
g9
g22
tp1295
(dp1296
g20
I0
sg21
I0
ss(g3
g11
g9
g48
tp1297
(dp1298
g20
I0
sg21
I0
ss(g3
g4
g5
g37
tp1299
(dp1300
g9
I0
ss(g10
g4
g28
g6
tp1301
(dp1302
g9
I0
sS'draw 5'
p1303
I0
ss(g10
g11
g9
g6
tp1304
(dp1305
g20
I0
sg21
I0
ss(g16
g17
g28
g25
tp1306
(dp1307
g9
I0
sS'draw 5'
p1308
I0
ss(g47
g11
g5
g102
tp1309
(dp1310
g9
I0
ss(g3
g17
g12
g48
tp1311
(dp1312
g9
I0
sS'draw 2'
p1313
I0
ss(g3
g11
g28
g25
tp1314
(dp1315
g9
I0
sS'draw 5'
p1316
I0
ss(g47
g17
g12
g54
tp1317
(dp1318
g9
I0
sS'draw 2'
p1319
I0
ss(g16
g11
g21
g6
tp1320
(dp1321
g20
I0
sg21
I0
ss(g10
g4
g5
g69
tp1322
(dp1323
g9
I0
ss(g3
g17
g42
g82
tp1324
(dp1325
g9
I0
sS'draw 4'
p1326
I0
ss(g10
g4
g21
g102
tp1327
(dp1328
g20
I0
sg21
I0
ss(g3
g17
g21
g6
tp1329
(dp1330
g20
I0
sg21
I0
ss(g3
g17
g21
g22
tp1331
(dp1332
g20
I0
sg21
I0
ss(g47
g11
g12
g37
tp1333
(dp1334
g9
F8.215983162999047
sS'draw 2'
p1335
F34.104572808991634
ss(g16
g4
g12
g29
tp1336
(dp1337
g9
I0
sS'draw 2'
p1338
I0
ss(g47
g17
g9
g37
tp1339
(dp1340
g20
F23.91081338109
sg21
F-0.8999999999999999
ss(g16
g4
g5
g22
tp1341
(dp1342
g9
I0
ss(g47
g17
g9
g22
tp1343
(dp1344
g20
I0
sg21
I0
ss(g3
g11
g28
g33
tp1345
(dp1346
g9
I0
sS'draw 5'
p1347
I0
ss(g47
g17
g42
g22
tp1348
(dp1349
g9
I0
sS'draw 4'
p1350
I0
ss(g10
g11
g42
g69
tp1351
(dp1352
g9
I0
sS'draw 4'
p1353
I0
ss(g16
g17
g5
g37
tp1354
(dp1355
g9
I0
ss(g10
g11
g42
g43
tp1356
(dp1357
g9
I0
sS'draw 4'
p1358
I0
ss(g47
g4
g76
g33
tp1359
(dp1360
g9
I0
sS'draw 3'
p1361
I0
ss(g16
g11
g9
g6
tp1362
(dp1363
g20
I0
sg21
I0
ss(g47
g17
g76
g6
tp1364
(dp1365
g9
I0
sS'draw 3'
p1366
I0
ss(g47
g17
g42
g37
tp1367
(dp1368
g9
F2.4599959499999997
sS'draw 4'
p1369
I0
ss(g10
g11
g28
g33
tp1370
(dp1371
g9
I0
sS'draw 5'
p1372
I0
ss(g47
g17
g9
g29
tp1373
(dp1374
g20
I0
sg21
I0
ss(g16
g11
g5
g69
tp1375
(dp1376
g9
I0
ss(g10
g4
g9
g69
tp1377
(dp1378
g20
I0
sg21
I0
ss(g3
g17
g9
g25
tp1379
(dp1380
g20
I0
sg21
I0
ss(g3
g11
g9
g69
tp1381
(dp1382
g20
I0
sg21
I0
ss(g47
g17
g5
g43
tp1383
(dp1384
g9
I0
ss(g47
g11
g9
g37
tp1385
(dp1386
g20
F19.082447315036525
sg21
F1.5595750449908323
ss(g10
g11
g12
g25
tp1387
(dp1388
g9
I0
sS'draw 2'
p1389
I0
ss(g3
g17
g42
g25
tp1390
(dp1391
g9
I0
sS'draw 4'
p1392
I0
ss(g16
g17
g5
g22
tp1393
(dp1394
g9
I0
ss(g47
g11
g76
g29
tp1395
(dp1396
g9
I0
sS'draw 3'
p1397
I0
ss(g3
g11
g12
g37
tp1398
(dp1399
g9
I0
sS'draw 2'
p1400
I0
ss(g3
g11
g28
g82
tp1401
(dp1402
g9
I0
sS'draw 5'
p1403
I0
ss(g16
g4
g5
g37
tp1404
(dp1405
g9
I0
ss(g3
g11
g21
g37
tp1406
(dp1407
g20
I0
sg21
I0
ss(g16
g17
g28
g82
tp1408
(dp1409
g9
I0
sS'draw 5'
p1410
I0
ss(g47
g17
g5
g48
tp1411
(dp1412
g9
I0
ss(g10
g17
g12
g48
tp1413
(dp1414
g9
I0
sS'draw 2'
p1415
I0
ss(g47
g17
g21
g69
tp1416
(dp1417
g20
I0
sg21
I0
ss(g10
g11
g76
g33
tp1418
(dp1419
g9
I0
sS'draw 3'
p1420
I0
ss(g10
g11
g21
g82
tp1421
(dp1422
g20
I0
sg21
I0
ss(g47
g4
g5
g48
tp1423
(dp1424
g9
I0
ss(g16
g11
g12
g22
tp1425
(dp1426
g9
I0
sS'draw 2'
p1427
I0
ss(g10
g4
g12
g54
tp1428
(dp1429
g9
I0
sS'draw 2'
p1430
I0
ss(g3
g17
g5
g82
tp1431
(dp1432
g9
I0
ss(g47
g4
g5
g82
tp1433
(dp1434
g9
I0
ss(g10
g4
g9
g6
tp1435
(dp1436
g20
I0
sg21
I0
ss(g47
g11
g9
g22
tp1437
(dp1438
g20
I0
sg21
I0
ss(g16
g17
g21
g82
tp1439
(dp1440
g20
I0
sg21
I0
ss(g3
g11
g76
g37
tp1441
(dp1442
g9
I0
sS'draw 3'
p1443
I0
ss(g47
g4
g28
g37
tp1444
(dp1445
g9
I0
sS'draw 5'
p1446
I0
ss(g10
g17
g9
g43
tp1447
(dp1448
g20
I0
sg21
I0
ss(g10
g4
g9
g48
tp1449
(dp1450
g20
I0
sg21
I0
ss(g16
g4
g21
g33
tp1451
(dp1452
g20
I0
sg21
I0
ss(g47
g11
g21
g22
tp1453
(dp1454
g20
I0
sg21
I0
ss(g16
g4
g5
g82
tp1455
(dp1456
g9
I0
ss(g10
g17
g76
g33
tp1457
(dp1458
g9
I0
sS'draw 3'
p1459
I0
ss(g10
g4
g21
g22
tp1460
(dp1461
g20
I0
sg21
I0
ss(g47
g4
g76
g82
tp1462
(dp1463
g9
I0
sS'draw 3'
p1464
I0
ss(g16
g11
g12
g37
tp1465
(dp1466
g9
F-20.791926078868507
sS'draw 2'
p1467
F-22.85545460947467
ss(g16
g17
g9
g29
tp1468
(dp1469
g20
I0
sg21
I0
ss(g16
g4
g9
g33
tp1470
(dp1471
g20
I0
sg21
I0
ss(g16
g11
g28
g6
tp1472
(dp1473
g9
I0
sS'draw 5'
p1474
I0
ss(g10
g11
g76
g82
tp1475
(dp1476
g9
I0
sS'draw 3'
p1477
I0
ss(g16
g4
g21
g29
tp1478
(dp1479
g20
I0
sg21
I0
ss(g47
g11
g12
g22
tp1480
(dp1481
g9
I0
sS'draw 2'
p1482
I0
ss(g16
g17
g42
g102
tp1483
(dp1484
g9
I0
sS'draw 4'
p1485
I0
ss(g16
g17
g21
g25
tp1486
(dp1487
g20
I0
sg21
I0
ss(g3
g17
g12
g43
tp1488
(dp1489
g9
I0
sS'draw 2'
p1490
I0
ss(g3
g11
g12
g102
tp1491
(dp1492
g9
I0
sS'draw 2'
p1493
I0
ss(g47
g4
g42
g22
tp1494
(dp1495
g9
I0
sS'draw 4'
p1496
I0
ss(g10
g17
g28
g6
tp1497
(dp1498
g9
I0
sS'draw 5'
p1499
I0
ss(g47
g4
g42
g69
tp1500
(dp1501
g9
I0
sS'draw 4'
p1502
I0
ss(g47
g4
g28
g54
tp1503
(dp1504
g9
I0
sS'draw 5'
p1505
I0
ss(g10
g4
g5
g43
tp1506
(dp1507
g9
I0
ss(g16
g17
g12
g29
tp1508
(dp1509
g9
I0
sS'draw 2'
p1510
I0
ss(g47
g4
g9
g33
tp1511
(dp1512
g20
I0
sg21
I0
ss(g10
g17
g28
g25
tp1513
(dp1514
g9
I0
sS'draw 5'
p1515
I0
ss(g3
g4
g12
g25
tp1516
(dp1517
g9
I0
sS'draw 2'
p1518
I0
ss(g3
g11
g76
g25
tp1519
(dp1520
g9
I0
sS'draw 3'
p1521
I0
ss(g10
g4
g5
g37
tp1522
(dp1523
g9
I0
ss(g3
g17
g12
g25
tp1524
(dp1525
g9
I0
sS'draw 2'
p1526
I0
ss(g47
g4
g12
g29
tp1527
(dp1528
g9
I0
sS'draw 2'
p1529
I0
ss(g16
g11
g12
g54
tp1530
(dp1531
g9
I0
sS'draw 2'
p1532
I0
ss(g3
g4
g12
g54
tp1533
(dp1534
g9
I0
sS'draw 2'
p1535
I0
ss(g10
g11
g12
g33
tp1536
(dp1537
g9
I0
sS'draw 2'
p1538
I0
ss(g10
g17
g12
g29
tp1539
(dp1540
g9
I0
sS'draw 2'
p1541
I0
ss(g47
g4
g9
g25
tp1542
(dp1543
g20
I0
sg21
I0
ss(g16
g11
g76
g37
tp1544
(dp1545
g9
F-9.6
sS'draw 3'
p1546
F-7.230533341444497
ss(g3
g17
g9
g102
tp1547
(dp1548
g20
I0
sg21
I0
ss(g10
g11
g5
g37
tp1549
(dp1550
g9
F52.63096546781999
ss(g47
g4
g9
g54
tp1551
(dp1552
g20
I0
sg21
I0
ss(g10
g17
g5
g37
tp1553
(dp1554
g9
F55.190345294865004
ss(g10
g4
g21
g82
tp1555
(dp1556
g20
I0
sg21
I0
ss(g10
g17
g76
g22
tp1557
(dp1558
g9
I0
sS'draw 3'
p1559
I0
ss(g10
g11
g21
g22
tp1560
(dp1561
g20
I0
sg21
I0
ss(g47
g17
g28
g48
tp1562
(dp1563
g9
I0
sS'draw 5'
p1564
I0
ss(g3
g4
g42
g48
tp1565
(dp1566
g9
I0
sS'draw 4'
p1567
I0
ss(g10
g4
g42
g69
tp1568
(dp1569
g9
I0
sS'draw 4'
p1570
I0
ss(g47
g11
g42
g82
tp1571
(dp1572
g9
I0
sS'draw 4'
p1573
I0
ss(g10
g4
g5
g25
tp1574
(dp1575
g9
I0
ss(g47
g17
g5
g69
tp1576
(dp1577
g9
I0
ss(g47
g17
g42
g48
tp1578
(dp1579
g9
I0
sS'draw 4'
p1580
I0
ss(g47
g4
g12
g37
tp1581
(dp1582
g9
F9.717000765000009
sS'draw 2'
p1583
F18.382650819446322
ss(g47
g4
g76
g6
tp1584
(dp1585
g9
I0
sS'draw 3'
p1586
I0
ss(g47
g11
g76
g82
tp1587
(dp1588
g9
I0
sS'draw 3'
p1589
I0
ss(g10
g11
g5
g43
tp1590
(dp1591
g9
I0
ss(g10
g11
g28
g54
tp1592
(dp1593
g9
I0
sS'draw 5'
p1594
I0
ss(g47
g11
g76
g43
tp1595
(dp1596
g9
I0
sS'draw 3'
p1597
I0
ss(g16
g11
g42
g6
tp1598
(dp1599
g9
I0
sS'draw 4'
p1600
I0
ss(g3
g17
g9
g33
tp1601
(dp1602
g20
I0
sg21
I0
ss(g47
g4
g9
g37
tp1603
(dp1604
g20
F22.95743536891914
sg21
F15.674996759999996
ss(g16
g17
g76
g6
tp1605
(dp1606
g9
I0
sS'draw 3'
p1607
I0
ss(g10
g11
g42
g22
tp1608
(dp1609
g9
I0
sS'draw 4'
p1610
I0
ss(g10
g4
g5
g33
tp1611
(dp1612
g9
I0
ss(g16
g11
g42
g25
tp1613
(dp1614
g9
I0
sS'draw 4'
p1615
I0
ss(g16
g4
g12
g102
tp1616
(dp1617
g9
I0
sS'draw 2'
p1618
I0
ss(g16
g17
g76
g25
tp1619
(dp1620
g9
I0
sS'draw 3'
p1621
I0
ss(g16
g4
g76
g48
tp1622
(dp1623
g9
I0
sS'draw 3'
p1624
I0
ss(g3
g11
g28
g69
tp1625
(dp1626
g9
I0
sS'draw 5'
p1627
I0
ss(g10
g17
g9
g25
tp1628
(dp1629
g20
I0
sg21
I0
ss(g3
g11
g42
g54
tp1630
(dp1631
g9
I0
sS'draw 4'
p1632
I0
ss(g16
g4
g21
g82
tp1633
(dp1634
g20
I0
sg21
I0
ss(g47
g17
g9
g43
tp1635
(dp1636
g20
I0
sg21
I0
ss(g16
g4
g28
g6
tp1637
(dp1638
g9
I0
sS'draw 5'
p1639
I0
ss(g47
g17
g28
g25
tp1640
(dp1641
g9
I0
sS'draw 5'
p1642
I0
ss(g10
g17
g76
g37
tp1643
(dp1644
g9
F34.43110928369005
sS'draw 3'
p1645
F3.7292431500000003
ss(g47
g4
g76
g69
tp1646
(dp1647
g9
I0
sS'draw 3'
p1648
I0
ss(g16
g11
g5
g102
tp1649
(dp1650
g9
I0
ss(g3
g11
g12
g6
tp1651
(dp1652
g9
I0
sS'draw 2'
p1653
I0
ss(g16
g11
g42
g29
tp1654
(dp1655
g9
I0
sS'draw 4'
p1656
I0
ss(g10
g4
g76
g29
tp1657
(dp1658
g9
I0
sS'draw 3'
p1659
I0
ss(g10
g4
g5
g48
tp1660
(dp1661
g9
I0
ss(g3
g17
g21
g82
tp1662
(dp1663
g20
I0
sg21
I0
ss(g47
g11
g42
g22
tp1664
(dp1665
g9
I0
sS'draw 4'
p1666
I0
ss(g3
g11
g76
g102
tp1667
(dp1668
g9
I0
sS'draw 3'
p1669
I0
ss(g3
g4
g5
g33
tp1670
(dp1671
g9
I0
ss(g16
g17
g76
g37
tp1672
(dp1673
g9
F17.072985234561372
sS'draw 3'
p1674
F1.2780000000000005
ss(g10
g4
g76
g22
tp1675
(dp1676
g9
I0
sS'draw 3'
p1677
I0
ss(g16
g11
g12
g43
tp1678
(dp1679
g9
I0
sS'draw 2'
p1680
I0
ss(g47
g11
g28
g54
tp1681
(dp1682
g9
I0
sS'draw 5'
p1683
I0
ss(g16
g4
g12
g43
tp1684
(dp1685
g9
I0
sS'draw 2'
p1686
I0
ss(g10
g11
g5
g25
tp1687
(dp1688
g9
I0
ss(g10
g11
g21
g54
tp1689
(dp1690
g20
I0
sg21
I0
ss(g47
g11
g12
g29
tp1691
(dp1692
g9
I0
sS'draw 2'
p1693
I0
ss(g16
g17
g12
g102
tp1694
(dp1695
g9
I0
sS'draw 2'
p1696
I0
ss(g3
g4
g42
g29
tp1697
(dp1698
g9
I0
sS'draw 4'
p1699
I0
ss(g3
g17
g28
g33
tp1700
(dp1701
g9
I0
sS'draw 5'
p1702
I0
ss(g10
g17
g21
g22
tp1703
(dp1704
g20
I0
sg21
I0
ss(g3
g11
g5
g22
tp1705
(dp1706
g9
I0
ss(g47
g17
g76
g43
tp1707
(dp1708
g9
I0
sS'draw 3'
p1709
I0
ss(g16
g17
g42
g29
tp1710
(dp1711
g9
I0
sS'draw 4'
p1712
I0
ss(g3
g4
g28
g29
tp1713
(dp1714
g9
I0
sS'draw 5'
p1715
I0
ss(g10
g4
g9
g37
tp1716
(dp1717
g20
F1.9068172676777935
sg21
F10.371486701854145
ss(g3
g11
g76
g48
tp1718
(dp1719
g9
I0
sS'draw 3'
p1720
I0
ss(g16
g17
g21
g69
tp1721
(dp1722
g20
I0
sg21
I0
ss(g10
g11
g12
g22
tp1723
(dp1724
g9
I0
sS'draw 2'
p1725
I0
ss(g47
g17
g42
g6
tp1726
(dp1727
g9
I0
sS'draw 4'
p1728
I0
ss(g10
g4
g21
g69
tp1729
(dp1730
g20
I0
sg21
I0
ss(g47
g4
g5
g69
tp1731
(dp1732
g9
I0
ss(g10
g11
g28
g43
tp1733
(dp1734
g9
I0
sS'draw 5'
p1735
I0
ss(g16
g11
g42
g48
tp1736
(dp1737
g9
I0
sS'draw 4'
p1738
I0
ss(g3
g11
g42
g69
tp1739
(dp1740
g9
I0
sS'draw 4'
p1741
I0
ss(g16
g11
g21
g22
tp1742
(dp1743
g20
I0
sg21
I0
ss(g47
g11
g28
g29
tp1744
(dp1745
g9
I0
sS'draw 5'
p1746
I0
ss(g16
g4
g76
g33
tp1747
(dp1748
g9
I0
sS'draw 3'
p1749
I0
ss(g16
g17
g28
g43
tp1750
(dp1751
g9
I0
sS'draw 5'
p1752
I0
ss(g47
g17
g5
g37
tp1753
(dp1754
g9
I0
ss(g3
g4
g21
g102
tp1755
(dp1756
g20
I0
sg21
I0
ss(g47
g11
g5
g37
tp1757
(dp1758
g9
F110.94964711001732
ss(g47
g4
g76
g54
tp1759
(dp1760
g9
I0
sS'draw 3'
p1761
I0
ss(g47
g4
g21
g82
tp1762
(dp1763
g20
I0
sg21
I0
ss(g10
g4
g9
g54
tp1764
(dp1765
g20
I0
sg21
I0
ss(g47
g11
g12
g33
tp1766
(dp1767
g9
I0
sS'draw 2'
p1768
I0
ss(g10
g11
g42
g82
tp1769
(dp1770
g9
I0
sS'draw 4'
p1771
I0
ss(g47
g17
g9
g69
tp1772
(dp1773
g20
I0
sg21
I0
ss(g16
g11
g9
g33
tp1774
(dp1775
g20
I0
sg21
I0
ss(g16
g17
g12
g37
tp1776
(dp1777
g9
F-17.131858235999992
sS'draw 2'
p1778
F-24.046528425176827
ss(g3
g4
g21
g29
tp1779
(dp1780
g20
I0
sg21
I0
ss(g3
g11
g9
g29
tp1781
(dp1782
g20
I0
sg21
I0
ss(g10
g11
g5
g69
tp1783
(dp1784
g9
I0
ss(g16
g11
g5
g82
tp1785
(dp1786
g9
I0
ss(g3
g17
g76
g54
tp1787
(dp1788
g9
I0
sS'draw 3'
p1789
I0
ss(g3
g17
g28
g37
tp1790
(dp1791
g9
I0
sS'draw 5'
p1792
I0
ss(g3
g11
g28
g43
tp1793
(dp1794
g9
I0
sS'draw 5'
p1795
I0
ss(g10
g17
g12
g82
tp1796
(dp1797
g9
I0
sS'draw 2'
p1798
I0
ss(g16
g11
g28
g37
tp1799
(dp1800
g9
F19.137600810000002
sS'draw 5'
p1801
F15.24000000000001
ss(g3
g4
g42
g25
tp1802
(dp1803
g9
I0
sS'draw 4'
p1804
I0
ss(g3
g11
g76
g29
tp1805
(dp1806
g9
I0
sS'draw 3'
p1807
I0
ss(g47
g17
g5
g54
tp1808
(dp1809
g9
I0
ss(g47
g11
g21
g37
tp1810
(dp1811
g20
F-2.4367332909119326
sg21
F-2.9988872408713716
ss(g10
g4
g28
g48
tp1812
(dp1813
g9
I0
sS'draw 5'
p1814
I0
ss(g10
g4
g42
g25
tp1815
(dp1816
g9
I0
sS'draw 4'
p1817
I0
ss(g16
g11
g42
g33
tp1818
(dp1819
g9
I0
sS'draw 4'
p1820
I0
ss(g10
g4
g9
g33
tp1821
(dp1822
g20
I0
sg21
I0
ss(g3
g17
g21
g29
tp1823
(dp1824
g20
I0
sg21
I0
ss(g16
g4
g42
g29
tp1825
(dp1826
g9
I0
sS'draw 4'
p1827
I0
ss(g3
g4
g5
g25
tp1828
(dp1829
g9
I0
ss(g16
g4
g28
g102
tp1830
(dp1831
g9
I0
sS'draw 5'
p1832
I0
ss(g10
g17
g12
g6
tp1833
(dp1834
g9
I0
sS'draw 2'
p1835
I0
ss(g16
g17
g5
g69
tp1836
(dp1837
g9
I0
ss(g16
g11
g5
g6
tp1838
(dp1839
g9
I0
ss(g16
g17
g12
g54
tp1840
(dp1841
g9
I0
sS'draw 2'
p1842
I0
ss(g16
g11
g28
g48
tp1843
(dp1844
g9
I0
sS'draw 5'
p1845
I0
ss(g16
g11
g9
g29
tp1846
(dp1847
g20
I0
sg21
I0
ss(g16
g11
g5
g25
tp1848
(dp1849
g9
I0
ss(g16
g17
g12
g25
tp1850
(dp1851
g9
I0
sS'draw 2'
p1852
I0
ss(g3
g4
g28
g33
tp1853
(dp1854
g9
I0
sS'draw 5'
p1855
I0
ss(g3
g11
g5
g48
tp1856
(dp1857
g9
I0
ss(g10
g4
g21
g33
tp1858
(dp1859
g20
I0
sg21
I0
ss(g47
g4
g42
g54
tp1860
(dp1861
g9
I0
sS'draw 4'
p1862
I0
ss(g16
g11
g12
g69
tp1863
(dp1864
g9
I0
sS'draw 2'
p1865
I0
ss(g3
g11
g9
g37
tp1866
(dp1867
g20
I0
sg21
I0
ss(g16
g11
g12
g29
tp1868
(dp1869
g9
I0
sS'draw 2'
p1870
I0
ss(g3
g11
g12
g69
tp1871
(dp1872
g9
I0
sS'draw 2'
p1873
I0
ss(g16
g4
g76
g6
tp1874
(dp1875
g9
I0
sS'draw 3'
p1876
I0
ss(g3
g11
g42
g48
tp1877
(dp1878
g9
I0
sS'draw 4'
p1879
I0
ss(g16
g4
g5
g29
tp1880
(dp1881
g9
I0
ss(g16
g4
g9
g102
tp1882
(dp1883
g20
I0
sg21
I0
ss(g3
g4
g21
g48
tp1884
(dp1885
g20
I0
sg21
I0
ss(g16
g11
g76
g48
tp1886
(dp1887
g9
I0
sS'draw 3'
p1888
I0
ss(g47
g11
g5
g6
tp1889
(dp1890
g9
I0
ss(g10
g11
g42
g6
tp1891
(dp1892
g9
I0
sS'draw 4'
p1893
I0
ss(g16
g17
g42
g33
tp1894
(dp1895
g9
I0
sS'draw 4'
p1896
I0
ss(g47
g11
g42
g102
tp1897
(dp1898
g9
I0
sS'draw 4'
p1899
I0
ss(g47
g17
g9
g33
tp1900
(dp1901
g20
I0
sg21
I0
ss(g10
g17
g28
g29
tp1902
(dp1903
g9
I0
sS'draw 5'
p1904
I0
ss(g10
g4
g5
g54
tp1905
(dp1906
g9
I0
ss(g3
g11
g12
g25
tp1907
(dp1908
g9
I0
sS'draw 2'
p1909
I0
ss(g47
g17
g12
g22
tp1910
(dp1911
g9
I0
sS'draw 2'
p1912
I0
ss(g47
g11
g9
g43
tp1913
(dp1914
g20
I0
sg21
I0
ss(g3
g11
g9
g25
tp1915
(dp1916
g20
I0
sg21
I0
ss(g10
g4
g42
g48
tp1917
(dp1918
g9
I0
sS'draw 4'
p1919
I0
ss(g47
g17
g28
g29
tp1920
(dp1921
g9
I0
sS'draw 5'
p1922
I0
ss(g3
g4
g9
g54
tp1923
(dp1924
g20
I0
sg21
I0
ss(g3
g11
g42
g33
tp1925
(dp1926
g9
I0
sS'draw 4'
p1927
I0
ss(g3
g11
g9
g6
tp1928
(dp1929
g20
I0
sg21
I0
ss(g47
g11
g42
g43
tp1930
(dp1931
g9
I0
sS'draw 4'
p1932
I0
ss(g3
g17
g9
g69
tp1933
(dp1934
g20
I0
sg21
I0
ss(g47
g17
g42
g102
tp1935
(dp1936
g9
I0
sS'draw 4'
p1937
I0
ss(g10
g17
g9
g33
tp1938
(dp1939
g20
I0
sg21
I0
ss(g10
g17
g76
g82
tp1940
(dp1941
g9
I0
sS'draw 3'
p1942
I0
ss(g47
g17
g28
g43
tp1943
(dp1944
g9
I0
sS'draw 5'
p1945
I0
ss(g3
g17
g9
g48
tp1946
(dp1947
g20
I0
sg21
I0
ss(g10
g11
g12
g37
tp1948
(dp1949
g9
F15.699286971130885
sS'draw 2'
p1950
F-5.758270075412686
ss(g3
g4
g42
g22
tp1951
(dp1952
g9
I0
sS'draw 4'
p1953
I0
ss(g47
g4
g12
g25
tp1954
(dp1955
g9
I0
sS'draw 2'
p1956
I0
ss(g47
g17
g21
g25
tp1957
(dp1958
g20
I0
sg21
I0
ss(g47
g17
g28
g22
tp1959
(dp1960
g9
I0
sS'draw 5'
p1961
I0
ss(g10
g11
g12
g43
tp1962
(dp1963
g9
I0
sS'draw 2'
p1964
I0
ss(g47
g4
g21
g54
tp1965
(dp1966
g20
I0
sg21
I0
ss(g10
g4
g12
g43
tp1967
(dp1968
g9
I0
sS'draw 2'
p1969
I0
ss(g47
g11
g21
g82
tp1970
(dp1971
g20
I0
sg21
I0
ss(g10
g17
g42
g69
tp1972
(dp1973
g9
I0
sS'draw 4'
p1974
I0
ss(g47
g17
g21
g6
tp1975
(dp1976
g20
I0
sg21
I0
ss(g3
g11
g21
g54
tp1977
(dp1978
g20
I0
sg21
I0
ss(g3
g4
g9
g102
tp1979
(dp1980
g20
I0
sg21
I0
ss(g16
g17
g21
g102
tp1981
(dp1982
g20
I0
sg21
I0
ss(g10
g17
g28
g48
tp1983
(dp1984
g9
I0
sS'draw 5'
p1985
I0
ss(g10
g11
g9
g43
tp1986
(dp1987
g20
I0
sg21
I0
ss(g16
g17
g9
g33
tp1988
(dp1989
g20
I0
sg21
I0
ss(g47
g11
g28
g69
tp1990
(dp1991
g9
I0
sS'draw 5'
p1992
I0
ss(g3
g17
g76
g29
tp1993
(dp1994
g9
I0
sS'draw 3'
p1995
I0
ss(g16
g4
g21
g25
tp1996
(dp1997
g20
I0
sg21
I0
ss(g10
g17
g5
g29
tp1998
(dp1999
g9
I0
ss(g10
g11
g12
g54
tp2000
(dp2001
g9
I0
sS'draw 2'
p2002
I0
ss(g10
g17
g12
g102
tp2003
(dp2004
g9
I0
sS'draw 2'
p2005
I0
ss(g3
g17
g42
g102
tp2006
(dp2007
g9
I0
sS'draw 4'
p2008
I0
ss(g3
g4
g9
g29
tp2009
(dp2010
g20
I0
sg21
I0
ss(g16
g11
g21
g25
tp2011
(dp2012
g20
I0
sg21
I0
ss(g16
g17
g76
g82
tp2013
(dp2014
g9
I0
sS'draw 3'
p2015
I0
ss(g10
g17
g28
g82
tp2016
(dp2017
g9
I0
sS'draw 5'
p2018
I0
ss(g16
g17
g9
g25
tp2019
(dp2020
g20
I0
sg21
I0
ss(g3
g17
g21
g25
tp2021
(dp2022
g20
I0
sg21
I0
ss(g16
g11
g42
g82
tp2023
(dp2024
g9
I0
sS'draw 4'
p2025
I0
ss(g16
g4
g76
g102
tp2026
(dp2027
g9
I0
sS'draw 3'
p2028
I0
ss(g47
g4
g42
g82
tp2029
(dp2030
g9
I0
sS'draw 4'
p2031
I0
ss(g16
g17
g9
g54
tp2032
(dp2033
g20
I0
sg21
I0
ss(g3
g4
g42
g69
tp2034
(dp2035
g9
I0
sS'draw 4'
p2036
I0
ss(g16
g4
g12
g82
tp2037
(dp2038
g9
I0
sS'draw 2'
p2039
I0
ss(g47
g11
g28
g22
tp2040
(dp2041
g9
I0
sS'draw 5'
p2042
I0
ss(g16
g4
g42
g54
tp2043
(dp2044
g9
I0
sS'draw 4'
p2045
I0
ss(g47
g17
g42
g43
tp2046
(dp2047
g9
I0
sS'draw 4'
p2048
I0
ss(g3
g11
g5
g43
tp2049
(dp2050
g9
I0
ss(g47
g11
g42
g25
tp2051
(dp2052
g9
I0
sS'draw 4'
p2053
I0
ss(g47
g4
g21
g37
tp2054
(dp2055
g20
F6.669240932399999
sg21
F-0.8999999999999999
ss(g10
g4
g21
g6
tp2056
(dp2057
g20
I0
sg21
I0
ss(g3
g11
g5
g25
tp2058
(dp2059
g9
I0
ss(g3
g17
g5
g69
tp2060
(dp2061
g9
I0
ss(g47
g17
g12
g69
tp2062
(dp2063
g9
I0
sS'draw 2'
p2064
I0
ss(g3
g17
g42
g43
tp2065
(dp2066
g9
I0
sS'draw 4'
p2067
I0
ss(g10
g11
g28
g102
tp2068
(dp2069
g9
I0
sS'draw 5'
p2070
I0
ss(g16
g17
g9
g37
tp2071
(dp2072
g20
F-8.841023979496224
sg21
F-10.7343012348
ss(g47
g4
g42
g48
tp2073
(dp2074
g9
I0
sS'draw 4'
p2075
I0
ss(g3
g11
g12
g54
tp2076
(dp2077
g9
I0
sS'draw 2'
p2078
I0
ss(g47
g11
g42
g33
tp2079
(dp2080
g9
I0
sS'draw 4'
p2081
I0
ss(g10
g11
g76
g54
tp2082
(dp2083
g9
I0
sS'draw 3'
p2084
I0
ss(g47
g4
g76
g29
tp2085
(dp2086
g9
I0
sS'draw 3'
p2087
I0
ss(g16
g4
g5
g102
tp2088
(dp2089
g9
I0
ss(g47
g4
g76
g25
tp2090
(dp2091
g9
I0
sS'draw 3'
p2092
I0
ss(g47
g17
g28
g54
tp2093
(dp2094
g9
I0
sS'draw 5'
p2095
I0
ss(g3
g4
g9
g82
tp2096
(dp2097
g20
I0
sg21
I0
ss(g16
g11
g9
g43
tp2098
(dp2099
g20
I0
sg21
I0
ss(g47
g11
g12
g69
tp2100
(dp2101
g9
I0
sS'draw 2'
p2102
I0
ss(g16
g11
g12
g102
tp2103
(dp2104
g9
I0
sS'draw 2'
p2105
I0
ss(g47
g17
g9
g6
tp2106
(dp2107
g20
I0
sg21
I0
ss(g3
g11
g9
g102
tp2108
(dp2109
g20
I0
sg21
I0
ss(g16
g4
g12
g33
tp2110
(dp2111
g9
I0
sS'draw 2'
p2112
I0
ss(g10
g17
g76
g6
tp2113
(dp2114
g9
I0
sS'draw 3'
p2115
I0
ss(g10
g17
g76
g69
tp2116
(dp2117
g9
I0
sS'draw 3'
p2118
I0
ss(g10
g17
g42
g48
tp2119
(dp2120
g9
I0
sS'draw 4'
p2121
I0
ss(g47
g17
g76
g102
tp2122
(dp2123
g9
I0
sS'draw 3'
p2124
I0
ss(g10
g17
g21
g29
tp2125
(dp2126
g20
I0
sg21
I0
ss(g3
g17
g28
g82
tp2127
(dp2128
g9
I0
sS'draw 5'
p2129
I0
ss(g47
g11
g76
g102
tp2130
(dp2131
g9
I0
sS'draw 3'
p2132
I0
ss(g10
g11
g42
g48
tp2133
(dp2134
g9
I0
sS'draw 4'
p2135
I0
ss(g10
g11
g76
g6
tp2136
(dp2137
g9
I0
sS'draw 3'
p2138
I0
ss(g16
g11
g28
g82
tp2139
(dp2140
g9
I0
sS'draw 5'
p2141
I0
ss(g3
g11
g5
g33
tp2142
(dp2143
g9
I0
ss(g16
g4
g28
g43
tp2144
(dp2145
g9
I0
sS'draw 5'
p2146
I0
ss(g16
g11
g21
g48
tp2147
(dp2148
g20
I0
sg21
I0
ss(g47
g4
g21
g29
tp2149
(dp2150
g20
I0
sg21
I0
ss(g10
g11
g76
g25
tp2151
(dp2152
g9
I0
sS'draw 3'
p2153
I0
ss(g10
g11
g9
g69
tp2154
(dp2155
g20
I0
sg21
I0
ss(g3
g17
g21
g48
tp2156
(dp2157
g20
I0
sg21
I0
ss(g47
g4
g42
g33
tp2158
(dp2159
g9
I0
sS'draw 4'
p2160
I0
ss(g47
g4
g76
g37
tp2161
(dp2162
g9
F25.78004967791338
sS'draw 3'
p2163
F2.45999505
ss(g47
g11
g28
g82
tp2164
(dp2165
g9
I0
sS'draw 5'
p2166
I0
ss(g47
g17
g21
g102
tp2167
(dp2168
g20
I0
sg21
I0
ss(g16
g17
g21
g6
tp2169
(dp2170
g20
I0
sg21
I0
ss(g16
g11
g5
g43
tp2171
(dp2172
g9
I0
ss(g16
g4
g12
g48
tp2173
(dp2174
g9
I0
sS'draw 2'
p2175
I0
ss(g47
g11
g42
g54
tp2176
(dp2177
g9
I0
sS'draw 4'
p2178
I0
ss(g16
g17
g9
g69
tp2179
(dp2180
g20
I0
sg21
I0
ss(g3
g11
g76
g6
tp2181
(dp2182
g9
I0
sS'draw 3'
p2183
I0
ss(g3
g4
g28
g37
tp2184
(dp2185
g9
I0
sS'draw 5'
p2186
I0
ss(g10
g11
g21
g6
tp2187
(dp2188
g20
I0
sg21
I0
ss(g3
g4
g12
g6
tp2189
(dp2190
g9
I0
sS'draw 2'
p2191
I0
ss(g47
g11
g76
g33
tp2192
(dp2193
g9
I0
sS'draw 3'
p2194
I0
ss(g16
g11
g42
g54
tp2195
(dp2196
g9
I0
sS'draw 4'
p2197
I0
ss(g3
g4
g28
g48
tp2198
(dp2199
g9
I0
sS'draw 5'
p2200
I0
ss(g16
g4
g76
g69
tp2201
(dp2202
g9
I0
sS'draw 3'
p2203
I0
ss(g47
g4
g12
g69
tp2204
(dp2205
g9
I0
sS'draw 2'
p2206
I0
ss(g47
g17
g12
g33
tp2207
(dp2208
g9
I0
sS'draw 2'
p2209
I0
ss(g3
g11
g28
g22
tp2210
(dp2211
g9
I0
sS'draw 5'
p2212
I0
ss(g3
g11
g76
g82
tp2213
(dp2214
g9
I0
sS'draw 3'
p2215
I0
ss(g47
g4
g12
g6
tp2216
(dp2217
g9
I0
sS'draw 2'
p2218
I0
ss(g47
g11
g5
g29
tp2219
(dp2220
g9
I0
ss(g16
g17
g5
g102
tp2221
(dp2222
g9
I0
ss(g10
g11
g9
g22
tp2223
(dp2224
g20
I0
sg21
I0
ss(g3
g11
g76
g22
tp2225
(dp2226
g9
I0
sS'draw 3'
p2227
I0
ss(g3
g17
g9
g82
tp2228
(dp2229
g20
I0
sg21
I0
ss(g3
g4
g9
g48
tp2230
(dp2231
g20
I0
sg21
I0
ss(g47
g4
g12
g54
tp2232
(dp2233
g9
I0
sS'draw 2'
p2234
I0
ss(g47
g11
g9
g33
tp2235
(dp2236
g20
I0
sg21
I0
ss(g16
g11
g9
g82
tp2237
(dp2238
g20
I0
sg21
I0
ss(g10
g17
g42
g33
tp2239
(dp2240
g9
I0
sS'draw 4'
p2241
I0
ss(g10
g17
g21
g33
tp2242
(dp2243
g20
I0
sg21
I0
ss(g10
g11
g42
g37
tp2244
(dp2245
g9
F-9.6
sS'draw 4'
p2246
F71.03753667153246
ss(g10
g11
g42
g29
tp2247
(dp2248
g9
I0
sS'draw 4'
p2249
I0
ss(g10
g17
g28
g22
tp2250
(dp2251
g9
I0
sS'draw 5'
p2252
I0
ss(g10
g4
g9
g29
tp2253
(dp2254
g20
I0
sg21
I0
ss(g16
g4
g9
g43
tp2255
(dp2256
g20
I0
sg21
I0
ss(g3
g17
g76
g22
tp2257
(dp2258
g9
I0
sS'draw 3'
p2259
I0
ss(g16
g17
g42
g82
tp2260
(dp2261
g9
I0
sS'draw 4'
p2262
I0
ss(g3
g11
g42
g22
tp2263
(dp2264
g9
I0
sS'draw 4'
p2265
I0
ss(g3
g4
g28
g25
tp2266
(dp2267
g9
I0
sS'draw 5'
p2268
I0
ss(g16
g4
g42
g43
tp2269
(dp2270
g9
I0
sS'draw 4'
p2271
I0
ss(g16
g17
g12
g48
tp2272
(dp2273
g9
I0
sS'draw 2'
p2274
I0
ss(g3
g17
g42
g6
tp2275
(dp2276
g9
I0
sS'draw 4'
p2277
I0
ss(g10
g11
g76
g48
tp2278
(dp2279
g9
I0
sS'draw 3'
p2280
I0
ss(g3
g4
g21
g33
tp2281
(dp2282
g20
I0
sg21
I0
ss(g3
g11
g21
g22
tp2283
(dp2284
g20
I0
sg21
I0
ss(g16
g17
g12
g69
tp2285
(dp2286
g9
I0
sS'draw 2'
p2287
I0
ss(g10
g4
g28
g82
tp2288
(dp2289
g9
I0
sS'draw 5'
p2290
I0
ss(g10
g4
g12
g6
tp2291
(dp2292
g9
I0
sS'draw 2'
p2293
I0
ss(g47
g17
g21
g29
tp2294
(dp2295
g20
I0
sg21
I0
ss(g10
g11
g76
g43
tp2296
(dp2297
g9
I0
sS'draw 3'
p2298
I0
ss(g16
g11
g12
g25
tp2299
(dp2300
g9
I0
sS'draw 2'
p2301
I0
ss(g16
g4
g28
g25
tp2302
(dp2303
g9
I0
sS'draw 5'
p2304
I0
ss(g16
g4
g42
g25
tp2305
(dp2306
g9
I0
sS'draw 4'
p2307
I0
ss(g47
g4
g76
g48
tp2308
(dp2309
g9
I0
sS'draw 3'
p2310
I0
ss(g3
g17
g21
g69
tp2311
(dp2312
g20
I0
sg21
I0
ss(g3
g17
g5
g102
tp2313
(dp2314
g9
I0
ss(g3
g17
g9
g54
tp2315
(dp2316
g20
I0
sg21
I0
ss(g16
g11
g5
g29
tp2317
(dp2318
g9
I0
ss(g3
g17
g42
g69
tp2319
(dp2320
g9
I0
sS'draw 4'
p2321
I0
ss(g3
g11
g76
g33
tp2322
(dp2323
g9
I0
sS'draw 3'
p2324
I0
ss(g47
g4
g5
g6
tp2325
(dp2326
g9
I0
ss(g3
g4
g5
g48
tp2327
(dp2328
g9
I0
ss(g16
g11
g9
g22
tp2329
(dp2330
g20
I0
sg21
I0
ss(g3
g4
g12
g102
tp2331
(dp2332
g9
I0
sS'draw 2'
p2333
I0
ss(g3
g17
g9
g22
tp2334
(dp2335
g20
I0
sg21
I0
ss(g16
g17
g5
g54
tp2336
(dp2337
g9
I0
ss(g3
g11
g42
g6
tp2338
(dp2339
g9
I0
sS'draw 4'
p2340
I0
ss(g47
g4
g76
g43
tp2341
(dp2342
g9
I0
sS'draw 3'
p2343
I0
ss(g16
g17
g5
g25
tp2344
(dp2345
g9
I0
ss(g3
g17
g76
g82
tp2346
(dp2347
g9
I0
sS'draw 3'
p2348
I0
ss(g16
g4
g28
g54
tp2349
(dp2350
g9
I0
sS'draw 5'
p2351
I0
ss(g3
g11
g9
g33
tp2352
(dp2353
g20
I0
sg21
I0
ss(g16
g11
g76
g82
tp2354
(dp2355
g9
I0
sS'draw 3'
p2356
I0
ss(g47
g4
g9
g102
tp2357
(dp2358
g20
I0
sg21
I0
ss(g16
g17
g5
g6
tp2359
(dp2360
g9
I0
ss(g47
g4
g42
g25
tp2361
(dp2362
g9
I0
sS'draw 4'
p2363
I0
ss(g47
g11
g12
g82
tp2364
(dp2365
g9
I0
sS'draw 2'
p2366
I0
ss(g16
g4
g28
g22
tp2367
(dp2368
g9
I0
sS'draw 5'
p2369
I0
ss(g3
g4
g76
g69
tp2370
(dp2371
g9
I0
sS'draw 3'
p2372
I0
ss(g10
g4
g28
g102
tp2373
(dp2374
g9
I0
sS'draw 5'
p2375
I0
ss(g3
g4
g9
g69
tp2376
(dp2377
g20
I0
sg21
I0
ss(g47
g17
g76
g22
tp2378
(dp2379
g9
I0
sS'draw 3'
p2380
I0
ss(g10
g11
g28
g22
tp2381
(dp2382
g9
I0
sS'draw 5'
p2383
I0
ss(g10
g17
g21
g43
tp2384
(dp2385
g20
I0
sg21
I0
ss(g47
g17
g42
g29
tp2386
(dp2387
g9
I0
sS'draw 4'
p2388
I0
ss(g47
g17
g42
g25
tp2389
(dp2390
g9
I0
sS'draw 4'
p2391
I0
ss(g47
g17
g76
g54
tp2392
(dp2393
g9
I0
sS'draw 3'
p2394
I0
ss(g10
g11
g42
g102
tp2395
(dp2396
g9
I0
sS'draw 4'
p2397
I0
ss(g47
g17
g9
g54
tp2398
(dp2399
g20
I0
sg21
I0
ss(g3
g17
g76
g69
tp2400
(dp2401
g9
I0
sS'draw 3'
p2402
I0
ss(g47
g17
g76
g48
tp2403
(dp2404
g9
I0
sS'draw 3'
p2405
I0
ss(g16
g4
g42
g33
tp2406
(dp2407
g9
I0
sS'draw 4'
p2408
I0
ss(g16
g17
g28
g22
tp2409
(dp2410
g9
I0
sS'draw 5'
p2411
I0
ss(g16
g17
g9
g43
tp2412
(dp2413
g20
I0
sg21
I0
ss(g3
g17
g5
g54
tp2414
(dp2415
g9
I0
ss(g16
g11
g76
g25
tp2416
(dp2417
g9
I0
sS'draw 3'
p2418
I0
ss(g16
g11
g5
g48
tp2419
(dp2420
g9
I0
ss(g16
g4
g76
g29
tp2421
(dp2422
g9
I0
sS'draw 3'
p2423
I0
ss(g16
g4
g76
g37
tp2424
(dp2425
g9
I0
sS'draw 3'
p2426
F4.277999054999997
ss(g16
g17
g5
g82
tp2427
(dp2428
g9
I0
ss(g3
g11
g21
g69
tp2429
(dp2430
g20
I0
sg21
I0
ss(g47
g11
g42
g69
tp2431
(dp2432
g9
I0
sS'draw 4'
p2433
I0
ss(g16
g4
g12
g69
tp2434
(dp2435
g9
I0
sS'draw 2'
p2436
I0
ss(g16
g11
g21
g54
tp2437
(dp2438
g20
I0
sg21
I0
ss(g10
g4
g5
g29
tp2439
(dp2440
g9
I0
ss(g16
g11
g28
g25
tp2441
(dp2442
g9
I0
sS'draw 5'
p2443
I0
ss(g3
g4
g5
g29
tp2444
(dp2445
g9
I0
ss(g10
g11
g76
g69
tp2446
(dp2447
g9
I0
sS'draw 3'
p2448
I0
ss(g16
g4
g9
g25
tp2449
(dp2450
g20
I0
sg21
I0
ss(g47
g4
g5
g37
tp2451
(dp2452
g9
I0
ss(g3
g4
g28
g82
tp2453
(dp2454
g9
I0
sS'draw 5'
p2455
I0
ss(g16
g17
g42
g37
tp2456
(dp2457
g9
I0
sS'draw 4'
p2458
F-5.159999999999992
ss(g16
g17
g21
g37
tp2459
(dp2460
g20
F-11.507400643218006
sg21
F-5.768010864360001
ss(g47
g17
g21
g43
tp2461
(dp2462
g20
I0
sg21
I0
ss(g10
g11
g9
g29
tp2463
(dp2464
g20
I0
sg21
I0
ss(g47
g17
g28
g37
tp2465
(dp2466
g9
I0
sS'draw 5'
p2467
I0
ss(g3
g17
g76
g37
tp2468
(dp2469
g9
I0
sS'draw 3'
p2470
I0
ss(g16
g17
g21
g43
tp2471
(dp2472
g20
I0
sg21
I0
ss(g16
g11
g21
g33
tp2473
(dp2474
g20
I0
sg21
I0
ss(g3
g4
g5
g69
tp2475
(dp2476
g9
I0
ss(g3
g17
g76
g43
tp2477
(dp2478
g9
I0
sS'draw 3'
p2479
I0
ss(g3
g4
g12
g37
tp2480
(dp2481
g9
I0
sS'draw 2'
p2482
I0
ss(g47
g4
g21
g69
tp2483
(dp2484
g20
I0
sg21
I0
ss(g10
g11
g12
g102
tp2485
(dp2486
g9
I0
sS'draw 2'
p2487
I0
ss(g3
g17
g5
g6
tp2488
(dp2489
g9
I0
ss(g3
g4
g76
g82
tp2490
(dp2491
g9
I0
sS'draw 3'
p2492
I0
ss(g10
g17
g9
g37
tp2493
(dp2494
g20
F15.421377537646972
sg21
F-2.1386049196913586
ss(g10
g11
g21
g69
tp2495
(dp2496
g20
I0
sg21
I0
ss(g3
g17
g5
g48
tp2497
(dp2498
g9
I0
ss(g10
g4
g12
g82
tp2499
(dp2500
g9
I0
sS'draw 2'
p2501
I0
ss(g10
g11
g5
g54
tp2502
(dp2503
g9
I0
ss(g47
g11
g28
g6
tp2504
(dp2505
g9
I0
sS'draw 5'
p2506
I0
ss(g16
g17
g21
g54
tp2507
(dp2508
g20
I0
sg21
I0
ss(g3
g11
g9
g43
tp2509
(dp2510
g20
I0
sg21
I0
ss(g10
g17
g21
g82
tp2511
(dp2512
g20
I0
sg21
I0
ss(g10
g4
g76
g37
tp2513
(dp2514
g9
I0
sS'draw 3'
p2515
F59.075356403638494
ss(g47
g11
g9
g25
tp2516
(dp2517
g20
I0
sg21
I0
ss(g16
g17
g42
g25
tp2518
(dp2519
g9
I0
sS'draw 4'
p2520
I0
ss(g10
g11
g76
g22
tp2521
(dp2522
g9
I0
sS'draw 3'
p2523
I0
ss(g10
g17
g5
g25
tp2524
(dp2525
g9
I0
ss(g16
g17
g42
g6
tp2526
(dp2527
g9
I0
sS'draw 4'
p2528
I0
ss(g47
g17
g12
g102
tp2529
(dp2530
g9
I0
sS'draw 2'
p2531
I0
ss(g16
g17
g12
g33
tp2532
(dp2533
g9
I0
sS'draw 2'
p2534
I0
ss(g10
g17
g28
g102
tp2535
(dp2536
g9
I0
sS'draw 5'
p2537
I0
ss(g10
g4
g28
g69
tp2538
(dp2539
g9
I0
sS'draw 5'
p2540
I0
ss(g3
g17
g5
g29
tp2541
(dp2542
g9
I0
ss(g3
g17
g42
g37
tp2543
(dp2544
g9
I0
sS'draw 4'
p2545
I0
ss(g10
g17
g12
g22
tp2546
(dp2547
g9
I0
sS'draw 2'
p2548
I0
ss(g3
g4
g28
g54
tp2549
(dp2550
g9
I0
sS'draw 5'
p2551
I0
ss(g10
g4
g21
g54
tp2552
(dp2553
g20
I0
sg21
I0
ss(g47
g17
g5
g25
tp2554
(dp2555
g9
I0
ss(g16
g4
g9
g29
tp2556
(dp2557
g20
I0
sg21
I0
ss(g16
g4
g9
g37
tp2558
(dp2559
g20
F0.8626097485349922
sg21
F-0.7567800000000028
ss(g16
g17
g9
g22
tp2560
(dp2561
g20
I0
sg21
I0
ss(g10
g11
g9
g48
tp2562
(dp2563
g20
I0
sg21
I0
ss(g10
g11
g28
g6
tp2564
(dp2565
g9
I0
sS'draw 5'
p2566
I0
ss(g3
g17
g42
g54
tp2567
(dp2568
g9
I0
sS'draw 4'
p2569
I0
ss(g47
g17
g5
g33
tp2570
(dp2571
g9
I0
ss(g47
g11
g12
g102
tp2572
(dp2573
g9
I0
sS'draw 2'
p2574
I0
ss(g3
g11
g12
g29
tp2575
(dp2576
g9
I0
sS'draw 2'
p2577
I0
ss(g10
g17
g21
g54
tp2578
(dp2579
g20
I0
sg21
I0
ss(g47
g11
g5
g43
tp2580
(dp2581
g9
I0
ss(g47
g11
g5
g82
tp2582
(dp2583
g9
I0
ss(g16
g4
g5
g48
tp2584
(dp2585
g9
I0
ss(g16
g4
g28
g29
tp2586
(dp2587
g9
I0
sS'draw 5'
p2588
I0
ss(g47
g11
g28
g25
tp2589
(dp2590
g9
I0
sS'draw 5'
p2591
I0
ss(g16
g4
g21
g22
tp2592
(dp2593
g20
I0
sg21
I0
ss(g16
g4
g28
g37
tp2594
(dp2595
g9
F14.159997165000004
sS'draw 5'
p2596
I0
ss(g47
g17
g12
g25
tp2597
(dp2598
g9
I0
sS'draw 2'
p2599
I0
ss(g47
g4
g42
g102
tp2600
(dp2601
g9
I0
sS'draw 4'
p2602
I0
ss(g47
g11
g21
g102
tp2603
(dp2604
g20
I0
sg21
I0
ss(g10
g4
g12
g22
tp2605
(dp2606
g9
I0
sS'draw 2'
p2607
I0
ss(g10
g17
g42
g37
tp2608
(dp2609
g9
I0
sS'draw 4'
p2610
F64.3827210584055
ss(g16
g4
g9
g48
tp2611
(dp2612
g20
I0
sg21
I0
ss(g3
g17
g28
g29
tp2613
(dp2614
g9
I0
sS'draw 5'
p2615
I0
ss(g16
g11
g76
g69
tp2616
(dp2617
g9
I0
sS'draw 3'
p2618
I0
ss(g3
g11
g28
g102
tp2619
(dp2620
g9
I0
sS'draw 5'
p2621
I0
sssS'movement'
p2622
(dp2623
(g3
g4
g5
g6
tp2624
(dp2625
S'move 1'
p2626
I0
sS'move 0'
p2627
I0
sS'strafe 1'
p2628
I0
sS'strafe -1'
p2629
I0
sS'move -1'
p2630
I0
ss(g10
g11
g12
g6
tp2631
(dp2632
g2626
I0
sg2627
I0
sg2628
I0
sg2629
I0
sg2630
I0
ss(g16
g17
g9
g6
tp2633
(dp2634
g2626
I0
sg2627
I0
sg2628
I0
sg2629
I0
sg2630
I0
ss(g3
g4
g9
g22
tp2635
(dp2636
g2626
I0
sg2627
I0
sg2628
I0
sg2629
I0
sg2630
I0
ss(g10
g4
g9
g25
tp2637
(dp2638
g2626
I0
sg2627
I0
sg2628
I0
sg2629
I0
sg2630
I0
ss(g3
g11
g28
g29
tp2639
(dp2640
g2626
I0
sg2627
I0
sg2628
I0
sg2629
I0
sg2630
I0
ss(g3
g17
g12
g33
tp2641
(dp2642
g2626
I0
sg2627
I0
sg2628
I0
sg2629
I0
sg2630
I0
ss(g3
g4
g21
g37
tp2643
(dp2644
g2626
I0
sg2627
I0
sg2628
I0
sg2629
I0
sg2630
I0
ss(g3
g4
g9
g25
tp2645
(dp2646
g2626
I0
sg2627
I0
sg2628
I0
sg2629
I0
sg2630
I0
ss(g3
g11
g42
g43
tp2647
(dp2648
g2626
I0
sg2627
I0
sg2628
I0
sg2629
I0
sg2630
I0
ss(g47
g11
g12
g48
tp2649
(dp2650
g2626
I0
sg2627
I0
sg2628
I0
sg2629
I0
sg2630
I0
ss(g3
g4
g9
g6
tp2651
(dp2652
g2626
I0
sg2627
I0
sg2628
I0
sg2629
I0
sg2630
I0
ss(g3
g11
g28
g54
tp2653
(dp2654
g2626
I0
sg2627
I0
sg2628
I0
sg2629
I0
sg2630
I0
ss(g10
g17
g42
g25
tp2655
(dp2656
g2626
I0
sg2627
I0
sg2628
I0
sg2629
I0
sg2630
I0
ss(g47
g17
g21
g22
tp2657
(dp2658
g2626
I0
sg2627
I0
sg2628
I0
sg2629
I0
sg2630
I0
ss(g3
g4
g12
g22
tp2659
(dp2660
g2626
I0
sg2627
I0
sg2628
I0
sg2629
I0
sg2630
I0
ss(g10
g17
g42
g29
tp2661
(dp2662
g2626
I0
sg2627
I0
sg2628
I0
sg2629
I0
sg2630
I0
ss(g3
g4
g12
g69
tp2663
(dp2664
g2626
I0
sg2627
I0
sg2628
I0
sg2629
I0
sg2630
I0
ss(g47
g4
g12
g22
tp2665
(dp2666
g2626
I0
sg2627
I0
sg2628
I0
sg2629
I0
sg2630
I0
ss(g10
g17
g76
g48
tp2667
(dp2668
g2626
I0
sg2627
I0
sg2628
I0
sg2629
I0
sg2630
I0
ss(g3
g17
g5
g22
tp2669
(dp2670
g2626
I0
sg2627
I0
sg2628
I0
sg2629
I0
sg2630
I0
ss(g3
g17
g12
g82
tp2671
(dp2672
g2626
I0
sg2627
I0
sg2628
I0
sg2629
I0
sg2630
I0
ss(g47
g17
g21
g54
tp2673
(dp2674
g2626
I0
sg2627
I0
sg2628
I0
sg2629
I0
sg2630
I0
ss(g47
g17
g42
g69
tp2675
(dp2676
g2626
I0
sg2627
I0
sg2628
I0
sg2629
I0
sg2630
I0
ss(g3
g4
g12
g48
tp2677
(dp2678
g2626
I0
sg2627
I0
sg2628
I0
sg2629
I0
sg2630
I0
ss(g47
g4
g28
g69
tp2679
(dp2680
g2626
I0
sg2627
I0
sg2628
I0
sg2629
I0
sg2630
I0
ss(g3
g11
g28
g48
tp2681
(dp2682
g2626
I0
sg2627
I0
sg2628
I0
sg2629
I0
sg2630
I0
ss(g47
g4
g9
g69
tp2683
(dp2684
g2626
I0
sg2627
I0
sg2628
I0
sg2629
I0
sg2630
I0
ss(g3
g17
g21
g102
tp2685
(dp2686
g2626
I0
sg2627
I0
sg2628
I0
sg2629
I0
sg2630
I0
ss(g10
g17
g21
g102
tp2687
(dp2688
g2626
I0
sg2627
I0
sg2628
I0
sg2629
I0
sg2630
I0
ss(g3
g4
g21
g25
tp2689
(dp2690
g2626
I0
sg2627
I0
sg2628
I0
sg2629
I0
sg2630
I0
ss(g47
g11
g12
g6
tp2691
(dp2692
g2626
I0
sg2627
I0
sg2628
I0
sg2629
I0
sg2630
I0
ss(g47
g11
g76
g54
tp2693
(dp2694
g2626
I0
sg2627
I0
sg2628
I0
sg2629
I0
sg2630
I0
ss(g16
g4
g12
g25
tp2695
(dp2696
g2626
I0
sg2627
I0
sg2628
I0
sg2629
I0
sg2630
I0
ss(g3
g17
g76
g102
tp2697
(dp2698
g2626
I0
sg2627
I0
sg2628
I0
sg2629
I0
sg2630
I0
ss(g16
g17
g21
g48
tp2699
(dp2700
g2626
I0
sg2627
I0
sg2628
I0
sg2629
I0
sg2630
I0
ss(g47
g4
g9
g48
tp2701
(dp2702
g2626
I0
sg2627
I0
sg2628
I0
sg2629
I0
sg2630
I0
ss(g16
g4
g12
g6
tp2703
(dp2704
g2626
I0
sg2627
I0
sg2628
I0
sg2629
I0
sg2630
I0
ss(g16
g4
g28
g48
tp2705
(dp2706
g2626
I0
sg2627
I0
sg2628
I0
sg2629
I0
sg2630
I0
ss(g47
g11
g21
g54
tp2707
(dp2708
g2626
I0
sg2627
I0
sg2628
I0
sg2629
I0
sg2630
I0
ss(g10
g4
g21
g43
tp2709
(dp2710
g2626
I0
sg2627
I0
sg2628
I0
sg2629
I0
sg2630
I0
ss(g16
g4
g28
g33
tp2711
(dp2712
g2626
I0
sg2627
I0
sg2628
I0
sg2629
I0
sg2630
I0
ss(g10
g4
g9
g82
tp2713
(dp2714
g2626
I0
sg2627
I0
sg2628
I0
sg2629
I0
sg2630
I0
ss(g47
g17
g21
g37
tp2715
(dp2716
g2626
I0
sg2627
I0
sg2628
I0
sg2629
F-0.8999999999999999
sg2630
F7.050001349999999
ss(g3
g11
g12
g82
tp2717
(dp2718
g2626
I0
sg2627
I0
sg2628
I0
sg2629
I0
sg2630
I0
ss(g47
g4
g76
g102
tp2719
(dp2720
g2626
I0
sg2627
I0
sg2628
I0
sg2629
I0
sg2630
I0
ss(g16
g4
g9
g82
tp2721
(dp2722
g2626
I0
sg2627
I0
sg2628
I0
sg2629
I0
sg2630
I0
ss(g10
g4
g76
g102
tp2723
(dp2724
g2626
I0
sg2627
I0
sg2628
I0
sg2629
I0
sg2630
I0
ss(g3
g11
g12
g43
tp2725
(dp2726
g2626
I0
sg2627
I0
sg2628
I0
sg2629
I0
sg2630
I0
ss(g10
g11
g28
g69
tp2727
(dp2728
g2626
I0
sg2627
I0
sg2628
I0
sg2629
I0
sg2630
I0
ss(g3
g11
g12
g33
tp2729
(dp2730
g2626
I0
sg2627
I0
sg2628
I0
sg2629
I0
sg2630
I0
ss(g16
g17
g42
g43
tp2731
(dp2732
g2626
I0
sg2627
I0
sg2628
I0
sg2629
I0
sg2630
I0
ss(g47
g11
g12
g43
tp2733
(dp2734
g2626
I0
sg2627
I0
sg2628
I0
sg2629
I0
sg2630
I0
ss(g16
g11
g5
g37
tp2735
(dp2736
g2626
I0
sg2627
F15.24000000000001
sg2628
I0
sg2629
I0
sg2630
I0
ss(g10
g17
g9
g54
tp2737
(dp2738
g2626
I0
sg2627
I0
sg2628
I0
sg2629
I0
sg2630
I0
ss(g10
g11
g5
g33
tp2739
(dp2740
g2626
I0
sg2627
I0
sg2628
I0
sg2629
I0
sg2630
I0
ss(g47
g17
g28
g33
tp2741
(dp2742
g2626
I0
sg2627
I0
sg2628
I0
sg2629
I0
sg2630
I0
ss(g47
g17
g9
g48
tp2743
(dp2744
g2626
I0
sg2627
I0
sg2628
I0
sg2629
I0
sg2630
I0
ss(g16
g11
g76
g22
tp2745
(dp2746
g2626
I0
sg2627
I0
sg2628
I0
sg2629
I0
sg2630
I0
ss(g16
g17
g28
g48
tp2747
(dp2748
g2626
I0
sg2627
I0
sg2628
I0
sg2629
I0
sg2630
I0
ss(g16
g4
g76
g54
tp2749
(dp2750
g2626
I0
sg2627
I0
sg2628
I0
sg2629
I0
sg2630
I0
ss(g10
g11
g5
g48
tp2751
(dp2752
g2626
I0
sg2627
I0
sg2628
I0
sg2629
I0
sg2630
I0
ss(g3
g17
g21
g43
tp2753
(dp2754
g2626
I0
sg2627
I0
sg2628
I0
sg2629
I0
sg2630
I0
ss(g16
g11
g5
g22
tp2755
(dp2756
g2626
I0
sg2627
I0
sg2628
I0
sg2629
I0
sg2630
I0
ss(g3
g17
g76
g33
tp2757
(dp2758
g2626
I0
sg2627
I0
sg2628
I0
sg2629
I0
sg2630
I0
ss(g47
g17
g21
g82
tp2759
(dp2760
g2626
I0
sg2627
I0
sg2628
I0
sg2629
I0
sg2630
I0
ss(g16
g11
g42
g43
tp2761
(dp2762
g2626
I0
sg2627
I0
sg2628
I0
sg2629
I0
sg2630
I0
ss(g47
g11
g21
g6
tp2763
(dp2764
g2626
I0
sg2627
I0
sg2628
I0
sg2629
I0
sg2630
I0
ss(g3
g4
g76
g29
tp2765
(dp2766
g2626
I0
sg2627
I0
sg2628
I0
sg2629
I0
sg2630
I0
ss(g16
g17
g28
g69
tp2767
(dp2768
g2626
I0
sg2627
I0
sg2628
I0
sg2629
I0
sg2630
I0
ss(g10
g11
g21
g33
tp2769
(dp2770
g2626
I0
sg2627
I0
sg2628
I0
sg2629
I0
sg2630
I0
ss(g3
g17
g28
g43
tp2771
(dp2772
g2626
I0
sg2627
I0
sg2628
I0
sg2629
I0
sg2630
I0
ss(g10
g11
g76
g102
tp2773
(dp2774
g2626
I0
sg2627
I0
sg2628
I0
sg2629
I0
sg2630
I0
ss(g10
g4
g12
g37
tp2775
(dp2776
g2626
F4.3546525680449975
sg2627
F7.234005216891391
sg2628
I0
sg2629
F3.9929932500000014
sg2630
F7.165342302149995
ss(g47
g4
g9
g29
tp2777
(dp2778
g2626
I0
sg2627
I0
sg2628
I0
sg2629
I0
sg2630
I0
ss(g10
g17
g76
g43
tp2779
(dp2780
g2626
I0
sg2627
I0
sg2628
I0
sg2629
I0
sg2630
I0
ss(g10
g4
g42
g22
tp2781
(dp2782
g2626
I0
sg2627
I0
sg2628
I0
sg2629
I0
sg2630
I0
ss(g3
g11
g76
g54
tp2783
(dp2784
g2626
I0
sg2627
I0
sg2628
I0
sg2629
I0
sg2630
I0
ss(g3
g11
g28
g6
tp2785
(dp2786
g2626
I0
sg2627
I0
sg2628
I0
sg2629
I0
sg2630
I0
ss(g47
g11
g42
g29
tp2787
(dp2788
g2626
I0
sg2627
I0
sg2628
I0
sg2629
I0
sg2630
I0
ss(g47
g11
g21
g69
tp2789
(dp2790
g2626
I0
sg2627
I0
sg2628
I0
sg2629
I0
sg2630
I0
ss(g3
g4
g12
g29
tp2791
(dp2792
g2626
I0
sg2627
I0
sg2628
I0
sg2629
I0
sg2630
I0
ss(g47
g4
g21
g102
tp2793
(dp2794
g2626
I0
sg2627
I0
sg2628
I0
sg2629
I0
sg2630
I0
ss(g16
g17
g5
g48
tp2795
(dp2796
g2626
I0
sg2627
I0
sg2628
I0
sg2629
I0
sg2630
I0
ss(g16
g11
g12
g48
tp2797
(dp2798
g2626
I0
sg2627
I0
sg2628
I0
sg2629
I0
sg2630
I0
ss(g47
g17
g5
g82
tp2799
(dp2800
g2626
I0
sg2627
I0
sg2628
I0
sg2629
I0
sg2630
I0
ss(g16
g17
g21
g29
tp2801
(dp2802
g2626
I0
sg2627
I0
sg2628
I0
sg2629
I0
sg2630
I0
ss(g3
g4
g42
g54
tp2803
(dp2804
g2626
I0
sg2627
I0
sg2628
I0
sg2629
I0
sg2630
I0
ss(g10
g11
g5
g6
tp2805
(dp2806
g2626
I0
sg2627
I0
sg2628
I0
sg2629
I0
sg2630
I0
ss(g10
g11
g5
g29
tp2807
(dp2808
g2626
I0
sg2627
I0
sg2628
I0
sg2629
I0
sg2630
I0
ss(g3
g4
g5
g102
tp2809
(dp2810
g2626
I0
sg2627
I0
sg2628
I0
sg2629
I0
sg2630
I0
ss(g3
g17
g12
g22
tp2811
(dp2812
g2626
I0
sg2627
I0
sg2628
I0
sg2629
I0
sg2630
I0
ss(g3
g4
g21
g82
tp2813
(dp2814
g2626
I0
sg2627
I0
sg2628
I0
sg2629
I0
sg2630
I0
ss(g10
g4
g12
g29
tp2815
(dp2816
g2626
I0
sg2627
I0
sg2628
I0
sg2629
I0
sg2630
I0
ss(g10
g4
g76
g54
tp2817
(dp2818
g2626
I0
sg2627
I0
sg2628
I0
sg2629
I0
sg2630
I0
ss(g47
g11
g9
g29
tp2819
(dp2820
g2626
I0
sg2627
I0
sg2628
I0
sg2629
I0
sg2630
I0
ss(g16
g4
g9
g22
tp2821
(dp2822
g2626
I0
sg2627
I0
sg2628
I0
sg2629
I0
sg2630
I0
ss(g47
g4
g42
g43
tp2823
(dp2824
g2626
I0
sg2627
I0
sg2628
I0
sg2629
I0
sg2630
I0
ss(g16
g11
g21
g29
tp2825
(dp2826
g2626
I0
sg2627
I0
sg2628
I0
sg2629
I0
sg2630
I0
ss(g10
g17
g28
g43
tp2827
(dp2828
g2626
I0
sg2627
I0
sg2628
I0
sg2629
I0
sg2630
I0
ss(g47
g4
g28
g48
tp2829
(dp2830
g2626
I0
sg2627
I0
sg2628
I0
sg2629
I0
sg2630
I0
ss(g10
g17
g12
g37
tp2831
(dp2832
g2626
F-9.6
sg2627
F17.885847568624502
sg2628
F10.282545897441636
sg2629
F20.86155949040847
sg2630
F8.844843833550009
ss(g16
g4
g76
g82
tp2833
(dp2834
g2626
I0
sg2627
I0
sg2628
I0
sg2629
I0
sg2630
I0
ss(g10
g17
g21
g25
tp2835
(dp2836
g2626
I0
sg2627
I0
sg2628
I0
sg2629
I0
sg2630
I0
ss(g10
g17
g42
g82
tp2837
(dp2838
g2626
I0
sg2627
I0
sg2628
I0
sg2629
I0
sg2630
I0
ss(g16
g4
g42
g22
tp2839
(dp2840
g2626
I0
sg2627
I0
sg2628
I0
sg2629
I0
sg2630
I0
ss(g16
g4
g5
g43
tp2841
(dp2842
g2626
I0
sg2627
I0
sg2628
I0
sg2629
I0
sg2630
I0
ss(g3
g11
g5
g102
tp2843
(dp2844
g2626
I0
sg2627
I0
sg2628
I0
sg2629
I0
sg2630
I0
ss(g47
g11
g5
g25
tp2845
(dp2846
g2626
I0
sg2627
I0
sg2628
I0
sg2629
I0
sg2630
I0
ss(g47
g17
g76
g82
tp2847
(dp2848
g2626
I0
sg2627
I0
sg2628
I0
sg2629
I0
sg2630
I0
ss(g16
g4
g9
g54
tp2849
(dp2850
g2626
I0
sg2627
I0
sg2628
I0
sg2629
I0
sg2630
I0
ss(g3
g11
g21
g48
tp2851
(dp2852
g2626
I0
sg2627
I0
sg2628
I0
sg2629
I0
sg2630
I0
ss(g16
g17
g42
g69
tp2853
(dp2854
g2626
I0
sg2627
I0
sg2628
I0
sg2629
I0
sg2630
I0
ss(g47
g17
g42
g54
tp2855
(dp2856
g2626
I0
sg2627
I0
sg2628
I0
sg2629
I0
sg2630
I0
ss(g47
g11
g42
g48
tp2857
(dp2858
g2626
I0
sg2627
I0
sg2628
I0
sg2629
I0
sg2630
I0
ss(g10
g11
g9
g82
tp2859
(dp2860
g2626
I0
sg2627
I0
sg2628
I0
sg2629
I0
sg2630
I0
ss(g10
g11
g5
g22
tp2861
(dp2862
g2626
I0
sg2627
I0
sg2628
I0
sg2629
I0
sg2630
I0
ss(g16
g4
g21
g102
tp2863
(dp2864
g2626
I0
sg2627
I0
sg2628
I0
sg2629
I0
sg2630
I0
ss(g3
g11
g5
g6
tp2865
(dp2866
g2626
I0
sg2627
I0
sg2628
I0
sg2629
I0
sg2630
I0
ss(g3
g4
g42
g82
tp2867
(dp2868
g2626
I0
sg2627
I0
sg2628
I0
sg2629
I0
sg2630
I0
ss(g47
g4
g28
g102
tp2869
(dp2870
g2626
I0
sg2627
I0
sg2628
I0
sg2629
I0
sg2630
I0
ss(g10
g17
g12
g25
tp2871
(dp2872
g2626
I0
sg2627
I0
sg2628
I0
sg2629
I0
sg2630
I0
ss(g16
g11
g28
g43
tp2873
(dp2874
g2626
I0
sg2627
I0
sg2628
I0
sg2629
I0
sg2630
I0
ss(g10
g11
g12
g69
tp2875
(dp2876
g2626
I0
sg2627
I0
sg2628
I0
sg2629
I0
sg2630
I0
ss(g3
g17
g42
g48
tp2877
(dp2878
g2626
I0
sg2627
I0
sg2628
I0
sg2629
I0
sg2630
I0
ss(g10
g17
g28
g69
tp2879
(dp2880
g2626
I0
sg2627
I0
sg2628
I0
sg2629
I0
sg2630
I0
ss(g3
g4
g76
g33
tp2881
(dp2882
g2626
I0
sg2627
I0
sg2628
I0
sg2629
I0
sg2630
I0
ss(g47
g4
g21
g25
tp2883
(dp2884
g2626
I0
sg2627
I0
sg2628
I0
sg2629
I0
sg2630
I0
ss(g3
g11
g12
g22
tp2885
(dp2886
g2626
I0
sg2627
I0
sg2628
I0
sg2629
I0
sg2630
I0
ss(g47
g4
g21
g6
tp2887
(dp2888
g2626
I0
sg2627
I0
sg2628
I0
sg2629
I0
sg2630
I0
ss(g3
g11
g5
g69
tp2889
(dp2890
g2626
I0
sg2627
I0
sg2628
I0
sg2629
I0
sg2630
I0
ss(g10
g17
g42
g54
tp2891
(dp2892
g2626
I0
sg2627
I0
sg2628
I0
sg2629
I0
sg2630
I0
ss(g3
g4
g21
g43
tp2893
(dp2894
g2626
I0
sg2627
I0
sg2628
I0
sg2629
I0
sg2630
I0
ss(g47
g17
g76
g37
tp2895
(dp2896
g2626
F23.750905365700497
sg2627
I0
sg2628
I0
sg2629
I0
sg2630
I0
ss(g10
g17
g28
g54
tp2897
(dp2898
g2626
I0
sg2627
I0
sg2628
I0
sg2629
I0
sg2630
I0
ss(g10
g17
g9
g22
tp2899
(dp2900
g2626
I0
sg2627
I0
sg2628
I0
sg2629
I0
sg2630
I0
ss(g10
g11
g42
g25
tp2901
(dp2902
g2626
I0
sg2627
I0
sg2628
I0
sg2629
I0
sg2630
I0
ss(g47
g11
g5
g48
tp2903
(dp2904
g2626
I0
sg2627
I0
sg2628
I0
sg2629
I0
sg2630
I0
ss(g16
g17
g5
g33
tp2905
(dp2906
g2626
I0
sg2627
I0
sg2628
I0
sg2629
I0
sg2630
I0
ss(g3
g11
g28
g37
tp2907
(dp2908
g2626
I0
sg2627
I0
sg2628
I0
sg2629
I0
sg2630
I0
ss(g47
g17
g76
g29
tp2909
(dp2910
g2626
I0
sg2627
I0
sg2628
I0
sg2629
I0
sg2630
I0
ss(g47
g17
g42
g82
tp2911
(dp2912
g2626
I0
sg2627
I0
sg2628
I0
sg2629
I0
sg2630
I0
ss(g16
g17
g28
g37
tp2913
(dp2914
g2626
F15.2400045
sg2627
I0
sg2628
F-3.0900000000000043
sg2629
I0
sg2630
I0
ss(g47
g4
g9
g6
tp2915
(dp2916
g2626
I0
sg2627
I0
sg2628
I0
sg2629
I0
sg2630
I0
ss(g3
g4
g21
g54
tp2917
(dp2918
g2626
I0
sg2627
I0
sg2628
I0
sg2629
I0
sg2630
I0
ss(g47
g17
g12
g37
tp2919
(dp2920
g2626
I0
sg2627
I0
sg2628
F8.930262195
sg2629
I0
sg2630
F1.8299959499999998
ss(g3
g17
g9
g6
tp2921
(dp2922
g2626
I0
sg2627
I0
sg2628
I0
sg2629
I0
sg2630
I0
ss(g47
g11
g12
g25
tp2923
(dp2924
g2626
I0
sg2627
I0
sg2628
I0
sg2629
I0
sg2630
I0
ss(g10
g4
g21
g48
tp2925
(dp2926
g2626
I0
sg2627
I0
sg2628
I0
sg2629
I0
sg2630
I0
ss(g10
g4
g9
g43
tp2927
(dp2928
g2626
I0
sg2627
I0
sg2628
I0
sg2629
I0
sg2630
I0
ss(g47
g17
g21
g48
tp2929
(dp2930
g2626
I0
sg2627
I0
sg2628
I0
sg2629
I0
sg2630
I0
ss(g47
g17
g5
g29
tp2931
(dp2932
g2626
I0
sg2627
I0
sg2628
I0
sg2629
I0
sg2630
I0
ss(g10
g4
g42
g29
tp2933
(dp2934
g2626
I0
sg2627
I0
sg2628
I0
sg2629
I0
sg2630
I0
ss(g47
g17
g21
g33
tp2935
(dp2936
g2626
I0
sg2627
I0
sg2628
I0
sg2629
I0
sg2630
I0
ss(g10
g11
g28
g82
tp2937
(dp2938
g2626
I0
sg2627
I0
sg2628
I0
sg2629
I0
sg2630
I0
ss(g16
g17
g28
g54
tp2939
(dp2940
g2626
I0
sg2627
I0
sg2628
I0
sg2629
I0
sg2630
I0
ss(g10
g17
g5
g82
tp2941
(dp2942
g2626
I0
sg2627
I0
sg2628
I0
sg2629
I0
sg2630
I0
ss(g10
g17
g9
g69
tp2943
(dp2944
g2626
I0
sg2627
I0
sg2628
I0
sg2629
I0
sg2630
I0
ss(g47
g17
g12
g6
tp2945
(dp2946
g2626
I0
sg2627
I0
sg2628
I0
sg2629
I0
sg2630
I0
ss(g47
g11
g9
g82
tp2947
(dp2948
g2626
I0
sg2627
I0
sg2628
I0
sg2629
I0
sg2630
I0
ss(g47
g4
g21
g22
tp2949
(dp2950
g2626
I0
sg2627
I0
sg2628
I0
sg2629
I0
sg2630
I0
ss(g10
g11
g21
g25
tp2951
(dp2952
g2626
I0
sg2627
I0
sg2628
I0
sg2629
I0
sg2630
I0
ss(g3
g11
g21
g6
tp2953
(dp2954
g2626
I0
sg2627
I0
sg2628
I0
sg2629
I0
sg2630
I0
ss(g10
g4
g42
g102
tp2955
(dp2956
g2626
I0
sg2627
I0
sg2628
I0
sg2629
I0
sg2630
I0
ss(g3
g4
g28
g69
tp2957
(dp2958
g2626
I0
sg2627
I0
sg2628
I0
sg2629
I0
sg2630
I0
ss(g3
g4
g28
g102
tp2959
(dp2960
g2626
I0
sg2627
I0
sg2628
I0
sg2629
I0
sg2630
I0
ss(g3
g17
g76
g48
tp2961
(dp2962
g2626
I0
sg2627
I0
sg2628
I0
sg2629
I0
sg2630
I0
ss(g47
g4
g28
g82
tp2963
(dp2964
g2626
I0
sg2627
I0
sg2628
I0
sg2629
I0
sg2630
I0
ss(g10
g17
g21
g48
tp2965
(dp2966
g2626
I0
sg2627
I0
sg2628
I0
sg2629
I0
sg2630
I0
ss(g47
g11
g28
g43
tp2967
(dp2968
g2626
I0
sg2627
I0
sg2628
I0
sg2629
I0
sg2630
I0
ss(g16
g17
g21
g22
tp2969
(dp2970
g2626
I0
sg2627
I0
sg2628
I0
sg2629
I0
sg2630
I0
ss(g16
g11
g12
g6
tp2971
(dp2972
g2626
I0
sg2627
I0
sg2628
I0
sg2629
I0
sg2630
I0
ss(g47
g4
g42
g37
tp2973
(dp2974
g2626
I0
sg2627
I0
sg2628
F2.45999505
sg2629
I0
sg2630
I0
ss(g16
g17
g9
g48
tp2975
(dp2976
g2626
I0
sg2627
I0
sg2628
I0
sg2629
I0
sg2630
I0
ss(g47
g4
g5
g22
tp2977
(dp2978
g2626
I0
sg2627
I0
sg2628
I0
sg2629
I0
sg2630
I0
ss(g16
g4
g5
g54
tp2979
(dp2980
g2626
I0
sg2627
I0
sg2628
I0
sg2629
I0
sg2630
I0
ss(g16
g17
g28
g33
tp2981
(dp2982
g2626
I0
sg2627
I0
sg2628
I0
sg2629
I0
sg2630
I0
ss(g16
g4
g28
g82
tp2983
(dp2984
g2626
I0
sg2627
I0
sg2628
I0
sg2629
I0
sg2630
I0
ss(g16
g11
g12
g82
tp2985
(dp2986
g2626
I0
sg2627
I0
sg2628
I0
sg2629
I0
sg2630
I0
ss(g3
g17
g28
g54
tp2987
(dp2988
g2626
I0
sg2627
I0
sg2628
I0
sg2629
I0
sg2630
I0
ss(g16
g4
g21
g6
tp2989
(dp2990
g2626
I0
sg2627
I0
sg2628
I0
sg2629
I0
sg2630
I0
ss(g3
g17
g12
g102
tp2991
(dp2992
g2626
I0
sg2627
I0
sg2628
I0
sg2629
I0
sg2630
I0
ss(g47
g4
g28
g6
tp2993
(dp2994
g2626
I0
sg2627
I0
sg2628
I0
sg2629
I0
sg2630
I0
ss(g3
g17
g9
g29
tp2995
(dp2996
g2626
I0
sg2627
I0
sg2628
I0
sg2629
I0
sg2630
I0
ss(g47
g11
g21
g48
tp2997
(dp2998
g2626
I0
sg2627
I0
sg2628
I0
sg2629
I0
sg2630
I0
ss(g3
g17
g42
g29
tp2999
(dp3000
g2626
I0
sg2627
I0
sg2628
I0
sg2629
I0
sg2630
I0
ss(g47
g4
g28
g25
tp3001
(dp3002
g2626
I0
sg2627
I0
sg2628
I0
sg2629
I0
sg2630
I0
ss(g16
g11
g42
g102
tp3003
(dp3004
g2626
I0
sg2627
I0
sg2628
I0
sg2629
I0
sg2630
I0
ss(g10
g4
g42
g33
tp3005
(dp3006
g2626
I0
sg2627
I0
sg2628
I0
sg2629
I0
sg2630
I0
ss(g10
g4
g76
g43
tp3007
(dp3008
g2626
I0
sg2627
I0
sg2628
I0
sg2629
I0
sg2630
I0
ss(g47
g11
g9
g6
tp3009
(dp3010
g2626
I0
sg2627
I0
sg2628
I0
sg2629
I0
sg2630
I0
ss(g47
g4
g5
g33
tp3011
(dp3012
g2626
I0
sg2627
I0
sg2628
I0
sg2629
I0
sg2630
I0
ss(g16
g11
g28
g54
tp3013
(dp3014
g2626
I0
sg2627
I0
sg2628
I0
sg2629
I0
sg2630
I0
ss(g10
g17
g5
g6
tp3015
(dp3016
g2626
I0
sg2627
I0
sg2628
I0
sg2629
I0
sg2630
I0
ss(g47
g11
g5
g33
tp3017
(dp3018
g2626
I0
sg2627
I0
sg2628
I0
sg2629
I0
sg2630
I0
ss(g47
g11
g76
g69
tp3019
(dp3020
g2626
I0
sg2627
I0
sg2628
I0
sg2629
I0
sg2630
I0
ss(g3
g4
g21
g6
tp3021
(dp3022
g2626
I0
sg2627
I0
sg2628
I0
sg2629
I0
sg2630
I0
ss(g16
g17
g28
g102
tp3023
(dp3024
g2626
I0
sg2627
I0
sg2628
I0
sg2629
I0
sg2630
I0
ss(g3
g4
g42
g37
tp3025
(dp3026
g2626
I0
sg2627
I0
sg2628
I0
sg2629
I0
sg2630
I0
ss(g10
g4
g9
g102
tp3027
(dp3028
g2626
I0
sg2627
I0
sg2628
I0
sg2629
I0
sg2630
I0
ss(g47
g4
g21
g43
tp3029
(dp3030
g2626
I0
sg2627
I0
sg2628
I0
sg2629
I0
sg2630
I0
ss(g47
g4
g12
g48
tp3031
(dp3032
g2626
I0
sg2627
I0
sg2628
I0
sg2629
I0
sg2630
I0
ss(g10
g11
g21
g102
tp3033
(dp3034
g2626
I0
sg2627
I0
sg2628
I0
sg2629
I0
sg2630
I0
ss(g16
g11
g9
g25
tp3035
(dp3036
g2626
I0
sg2627
I0
sg2628
I0
sg2629
I0
sg2630
I0
ss(g47
g11
g76
g37
tp3037
(dp3038
g2626
F31.42025875698454
sg2627
F7.680000000000015
sg2628
F1.0445464762669325
sg2629
F9.291233943729644
sg2630
F8.009138536633852
ss(g16
g11
g9
g54
tp3039
(dp3040
g2626
I0
sg2627
I0
sg2628
I0
sg2629
I0
sg2630
I0
ss(g47
g4
g9
g82
tp3041
(dp3042
g2626
I0
sg2627
I0
sg2628
I0
sg2629
I0
sg2630
I0
ss(g10
g11
g9
g37
tp3043
(dp3044
g2626
F20.45917582590414
sg2627
F-1.777656942195577
sg2628
F14.829106154097666
sg2629
F7.060965093226345
sg2630
F11.578720932950244
ss(g10
g17
g28
g37
tp3045
(dp3046
g2626
I0
sg2627
F60.72196515195
sg2628
F-5.159999999999992
sg2629
I0
sg2630
I0
ss(g47
g11
g12
g54
tp3047
(dp3048
g2626
I0
sg2627
I0
sg2628
I0
sg2629
I0
sg2630
I0
ss(g10
g17
g76
g102
tp3049
(dp3050
g2626
I0
sg2627
I0
sg2628
I0
sg2629
I0
sg2630
I0
ss(g47
g11
g42
g6
tp3051
(dp3052
g2626
I0
sg2627
I0
sg2628
I0
sg2629
I0
sg2630
I0
ss(g3
g17
g42
g22
tp3053
(dp3054
g2626
I0
sg2627
I0
sg2628
I0
sg2629
I0
sg2630
I0
ss(g3
g11
g21
g102
tp3055
(dp3056
g2626
I0
sg2627
I0
sg2628
I0
sg2629
I0
sg2630
I0
ss(g3
g17
g5
g25
tp3057
(dp3058
g2626
I0
sg2627
I0
sg2628
I0
sg2629
I0
sg2630
I0
ss(g3
g4
g76
g6
tp3059
(dp3060
g2626
I0
sg2627
I0
sg2628
I0
sg2629
I0
sg2630
I0
ss(g16
g17
g76
g102
tp3061
(dp3062
g2626
I0
sg2627
I0
sg2628
I0
sg2629
I0
sg2630
I0
ss(g47
g17
g9
g25
tp3063
(dp3064
g2626
I0
sg2627
I0
sg2628
I0
sg2629
I0
sg2630
I0
ss(g3
g17
g9
g37
tp3065
(dp3066
g2626
I0
sg2627
I0
sg2628
I0
sg2629
I0
sg2630
I0
ss(g16
g4
g76
g43
tp3067
(dp3068
g2626
I0
sg2627
I0
sg2628
I0
sg2629
I0
sg2630
I0
ss(g16
g4
g21
g54
tp3069
(dp3070
g2626
I0
sg2627
I0
sg2628
I0
sg2629
I0
sg2630
I0
ss(g16
g11
g9
g37
tp3071
(dp3072
g2626
F-4.73999865
sg2627
F-10.019871663409072
sg2628
F-15.278399779500003
sg2629
F-0.7229996849999907
sg2630
F-6.9097395382164555
ss(g47
g11
g9
g54
tp3073
(dp3074
g2626
I0
sg2627
I0
sg2628
I0
sg2629
I0
sg2630
I0
ss(g47
g4
g12
g43
tp3075
(dp3076
g2626
I0
sg2627
I0
sg2628
I0
sg2629
I0
sg2630
I0
ss(g3
g11
g42
g25
tp3077
(dp3078
g2626
I0
sg2627
I0
sg2628
I0
sg2629
I0
sg2630
I0
ss(g10
g17
g9
g29
tp3079
(dp3080
g2626
I0
sg2627
I0
sg2628
I0
sg2629
I0
sg2630
I0
ss(g3
g4
g28
g43
tp3081
(dp3082
g2626
I0
sg2627
I0
sg2628
I0
sg2629
I0
sg2630
I0
ss(g16
g4
g42
g48
tp3083
(dp3084
g2626
I0
sg2627
I0
sg2628
I0
sg2629
I0
sg2630
I0
ss(g47
g11
g5
g69
tp3085
(dp3086
g2626
I0
sg2627
I0
sg2628
I0
sg2629
I0
sg2630
I0
ss(g47
g17
g28
g102
tp3087
(dp3088
g2626
I0
sg2627
I0
sg2628
I0
sg2629
I0
sg2630
I0
ss(g3
g4
g42
g6
tp3089
(dp3090
g2626
I0
sg2627
I0
sg2628
I0
sg2629
I0
sg2630
I0
ss(g16
g4
g5
g6
tp3091
(dp3092
g2626
I0
sg2627
I0
sg2628
I0
sg2629
I0
sg2630
I0
ss(g16
g4
g21
g43
tp3093
(dp3094
g2626
I0
sg2627
I0
sg2628
I0
sg2629
I0
sg2630
I0
ss(g10
g4
g28
g33
tp3095
(dp3096
g2626
I0
sg2627
I0
sg2628
I0
sg2629
I0
sg2630
I0
ss(g10
g4
g12
g102
tp3097
(dp3098
g2626
I0
sg2627
I0
sg2628
I0
sg2629
I0
sg2630
I0
ss(g10
g11
g9
g25
tp3099
(dp3100
g2626
I0
sg2627
I0
sg2628
I0
sg2629
I0
sg2630
I0
ss(g3
g4
g12
g82
tp3101
(dp3102
g2626
I0
sg2627
I0
sg2628
I0
sg2629
I0
sg2630
I0
ss(g3
g17
g21
g54
tp3103
(dp3104
g2626
I0
sg2627
I0
sg2628
I0
sg2629
I0
sg2630
I0
ss(g10
g4
g76
g48
tp3105
(dp3106
g2626
I0
sg2627
I0
sg2628
I0
sg2629
I0
sg2630
I0
ss(g16
g11
g76
g43
tp3107
(dp3108
g2626
I0
sg2627
I0
sg2628
I0
sg2629
I0
sg2630
I0
ss(g3
g11
g42
g37
tp3109
(dp3110
g2626
I0
sg2627
I0
sg2628
I0
sg2629
I0
sg2630
I0
ss(g10
g4
g28
g25
tp3111
(dp3112
g2626
I0
sg2627
I0
sg2628
I0
sg2629
I0
sg2630
I0
ss(g16
g17
g28
g6
tp3113
(dp3114
g2626
I0
sg2627
I0
sg2628
I0
sg2629
I0
sg2630
I0
ss(g47
g17
g76
g69
tp3115
(dp3116
g2626
I0
sg2627
I0
sg2628
I0
sg2629
I0
sg2630
I0
ss(g10
g17
g42
g6
tp3117
(dp3118
g2626
I0
sg2627
I0
sg2628
I0
sg2629
I0
sg2630
I0
ss(g16
g11
g9
g102
tp3119
(dp3120
g2626
I0
sg2627
I0
sg2628
I0
sg2629
I0
sg2630
I0
ss(g10
g4
g28
g54
tp3121
(dp3122
g2626
I0
sg2627
I0
sg2628
I0
sg2629
I0
sg2630
I0
ss(g10
g11
g28
g37
tp3123
(dp3124
g2626
I0
sg2627
I0
sg2628
F20.10000000000001
sg2629
F23.159995499999994
sg2630
F69.59718951519947
ss(g3
g4
g5
g54
tp3125
(dp3126
g2626
I0
sg2627
I0
sg2628
I0
sg2629
I0
sg2630
I0
ss(g16
g11
g5
g33
tp3127
(dp3128
g2626
I0
sg2627
I0
sg2628
I0
sg2629
I0
sg2630
I0
ss(g16
g4
g76
g25
tp3129
(dp3130
g2626
I0
sg2627
I0
sg2628
I0
sg2629
I0
sg2630
I0
ss(g3
g17
g21
g33
tp3131
(dp3132
g2626
I0
sg2627
I0
sg2628
I0
sg2629
I0
sg2630
I0
ss(g3
g4
g9
g33
tp3133
(dp3134
g2626
I0
sg2627
I0
sg2628
I0
sg2629
I0
sg2630
I0
ss(g47
g4
g28
g29
tp3135
(dp3136
g2626
I0
sg2627
I0
sg2628
I0
sg2629
I0
sg2630
I0
ss(g10
g11
g28
g25
tp3137
(dp3138
g2626
I0
sg2627
I0
sg2628
I0
sg2629
I0
sg2630
I0
ss(g10
g17
g12
g43
tp3139
(dp3140
g2626
I0
sg2627
I0
sg2628
I0
sg2629
I0
sg2630
I0
ss(g10
g17
g5
g33
tp3141
(dp3142
g2626
I0
sg2627
I0
sg2628
I0
sg2629
I0
sg2630
I0
ss(g47
g4
g5
g43
tp3143
(dp3144
g2626
I0
sg2627
I0
sg2628
I0
sg2629
I0
sg2630
I0
ss(g10
g11
g12
g29
tp3145
(dp3146
g2626
I0
sg2627
I0
sg2628
I0
sg2629
I0
sg2630
I0
ss(g16
g17
g42
g48
tp3147
(dp3148
g2626
I0
sg2627
I0
sg2628
I0
sg2629
I0
sg2630
I0
ss(g3
g4
g5
g43
tp3149
(dp3150
g2626
I0
sg2627
I0
sg2628
I0
sg2629
I0
sg2630
I0
ss(g10
g11
g28
g29
tp3151
(dp3152
g2626
I0
sg2627
I0
sg2628
I0
sg2629
I0
sg2630
I0
ss(g3
g11
g12
g48
tp3153
(dp3154
g2626
I0
sg2627
I0
sg2628
I0
sg2629
I0
sg2630
I0
ss(g3
g11
g42
g82
tp3155
(dp3156
g2626
I0
sg2627
I0
sg2628
I0
sg2629
I0
sg2630
I0
ss(g10
g4
g28
g37
tp3157
(dp3158
g2626
I0
sg2627
I0
sg2628
I0
sg2629
F15.480000000000008
sg2630
F75.8822231829256
ss(g3
g17
g5
g33
tp3159
(dp3160
g2626
I0
sg2627
I0
sg2628
I0
sg2629
I0
sg2630
I0
ss(g47
g4
g5
g54
tp3161
(dp3162
g2626
I0
sg2627
I0
sg2628
I0
sg2629
I0
sg2630
I0
ss(g3
g17
g12
g69
tp3163
(dp3164
g2626
I0
sg2627
I0
sg2628
I0
sg2629
I0
sg2630
I0
ss(g16
g17
g5
g43
tp3165
(dp3166
g2626
I0
sg2627
I0
sg2628
I0
sg2629
I0
sg2630
I0
ss(g3
g11
g21
g82
tp3167
(dp3168
g2626
I0
sg2627
I0
sg2628
I0
sg2629
I0
sg2630
I0
ss(g16
g4
g42
g37
tp3169
(dp3170
g2626
I0
sg2627
I0
sg2628
F6.959999999999998
sg2629
I0
sg2630
I0
ss(g3
g17
g28
g48
tp3171
(dp3172
g2626
I0
sg2627
I0
sg2628
I0
sg2629
I0
sg2630
I0
ss(g10
g17
g9
g48
tp3173
(dp3174
g2626
I0
sg2627
I0
sg2628
I0
sg2629
I0
sg2630
I0
ss(g3
g4
g21
g22
tp3175
(dp3176
g2626
I0
sg2627
I0
sg2628
I0
sg2629
I0
sg2630
I0
ss(g16
g17
g76
g29
tp3177
(dp3178
g2626
I0
sg2627
I0
sg2628
I0
sg2629
I0
sg2630
I0
ss(g3
g4
g28
g22
tp3179
(dp3180
g2626
I0
sg2627
I0
sg2628
I0
sg2629
I0
sg2630
I0
ss(g16
g11
g76
g54
tp3181
(dp3182
g2626
I0
sg2627
I0
sg2628
I0
sg2629
I0
sg2630
I0
ss(g16
g11
g21
g82
tp3183
(dp3184
g2626
I0
sg2627
I0
sg2628
I0
sg2629
I0
sg2630
I0
ss(g10
g17
g5
g43
tp3185
(dp3186
g2626
I0
sg2627
I0
sg2628
I0
sg2629
I0
sg2630
I0
ss(g47
g11
g21
g29
tp3187
(dp3188
g2626
I0
sg2627
I0
sg2628
I0
sg2629
I0
sg2630
I0
ss(g47
g11
g28
g37
tp3189
(dp3190
g2626
F61.0800045
sg2627
F32.51999865000001
sg2628
F36.65999999999994
sg2629
F36.660000000000004
sg2630
F109.47718094498225
ss(g10
g17
g21
g69
tp3191
(dp3192
g2626
I0
sg2627
I0
sg2628
I0
sg2629
I0
sg2630
I0
ss(g10
g17
g76
g29
tp3193
(dp3194
g2626
I0
sg2627
I0
sg2628
I0
sg2629
I0
sg2630
I0
ss(g47
g17
g5
g6
tp3195
(dp3196
g2626
I0
sg2627
I0
sg2628
I0
sg2629
I0
sg2630
I0
ss(g10
g11
g9
g102
tp3197
(dp3198
g2626
I0
sg2627
I0
sg2628
I0
sg2629
I0
sg2630
I0
ss(g10
g4
g42
g54
tp3199
(dp3200
g2626
I0
sg2627
I0
sg2628
I0
sg2629
I0
sg2630
I0
ss(g47
g11
g21
g33
tp3201
(dp3202
g2626
I0
sg2627
I0
sg2628
I0
sg2629
I0
sg2630
I0
ss(g10
g4
g76
g25
tp3203
(dp3204
g2626
I0
sg2627
I0
sg2628
I0
sg2629
I0
sg2630
I0
ss(g16
g11
g28
g33
tp3205
(dp3206
g2626
I0
sg2627
I0
sg2628
I0
sg2629
I0
sg2630
I0
ss(g16
g11
g42
g37
tp3207
(dp3208
g2626
F13.619228205000002
sg2627
I0
sg2628
I0
sg2629
I0
sg2630
I0
ss(g16
g4
g21
g69
tp3209
(dp3210
g2626
I0
sg2627
I0
sg2628
I0
sg2629
I0
sg2630
I0
ss(g47
g4
g28
g43
tp3211
(dp3212
g2626
I0
sg2627
I0
sg2628
I0
sg2629
I0
sg2630
I0
ss(g47
g11
g5
g54
tp3213
(dp3214
g2626
I0
sg2627
I0
sg2628
I0
sg2629
I0
sg2630
I0
ss(g10
g4
g76
g6
tp3215
(dp3216
g2626
I0
sg2627
I0
sg2628
I0
sg2629
I0
sg2630
I0
ss(g47
g17
g28
g6
tp3217
(dp3218
g2626
I0
sg2627
I0
sg2628
I0
sg2629
I0
sg2630
I0
ss(g3
g17
g12
g54
tp3219
(dp3220
g2626
I0
sg2627
I0
sg2628
I0
sg2629
I0
sg2630
I0
ss(g16
g11
g21
g69
tp3221
(dp3222
g2626
I0
sg2627
I0
sg2628
I0
sg2629
I0
sg2630
I0
ss(g10
g17
g28
g33
tp3223
(dp3224
g2626
I0
sg2627
I0
sg2628
I0
sg2629
I0
sg2630
I0
ss(g3
g4
g42
g102
tp3225
(dp3226
g2626
I0
sg2627
I0
sg2628
I0
sg2629
I0
sg2630
I0
ss(g47
g4
g28
g22
tp3227
(dp3228
g2626
I0
sg2627
I0
sg2628
I0
sg2629
I0
sg2630
I0
ss(g47
g4
g12
g102
tp3229
(dp3230
g2626
I0
sg2627
I0
sg2628
I0
sg2629
I0
sg2630
I0
ss(g16
g4
g42
g102
tp3231
(dp3232
g2626
I0
sg2627
I0
sg2628
I0
sg2629
I0
sg2630
I0
ss(g47
g11
g9
g69
tp3233
(dp3234
g2626
I0
sg2627
I0
sg2628
I0
sg2629
I0
sg2630
I0
ss(g10
g4
g42
g43
tp3235
(dp3236
g2626
I0
sg2627
I0
sg2628
I0
sg2629
I0
sg2630
I0
ss(g16
g4
g21
g37
tp3237
(dp3238
g2626
I0
sg2627
I0
sg2628
F7.679999999999999
sg2629
I0
sg2630
I0
ss(g10
g17
g5
g69
tp3239
(dp3240
g2626
I0
sg2627
I0
sg2628
I0
sg2629
I0
sg2630
I0
ss(g10
g17
g76
g25
tp3241
(dp3242
g2626
I0
sg2627
I0
sg2628
I0
sg2629
I0
sg2630
I0
ss(g3
g17
g28
g25
tp3243
(dp3244
g2626
I0
sg2627
I0
sg2628
I0
sg2629
I0
sg2630
I0
ss(g16
g4
g9
g6
tp3245
(dp3246
g2626
I0
sg2627
I0
sg2628
I0
sg2629
I0
sg2630
I0
ss(g10
g17
g42
g102
tp3247
(dp3248
g2626
I0
sg2627
I0
sg2628
I0
sg2629
I0
sg2630
I0
ss(g10
g4
g42
g37
tp3249
(dp3250
g2626
F6.491990766
sg2627
F27.24
sg2628
F51.0342510942827
sg2629
I0
sg2630
I0
ss(g10
g17
g76
g54
tp3251
(dp3252
g2626
I0
sg2627
I0
sg2628
I0
sg2629
I0
sg2630
I0
ss(g3
g4
g76
g25
tp3253
(dp3254
g2626
I0
sg2627
I0
sg2628
I0
sg2629
I0
sg2630
I0
ss(g16
g4
g5
g33
tp3255
(dp3256
g2626
I0
sg2627
I0
sg2628
I0
sg2629
I0
sg2630
I0
ss(g3
g11
g5
g54
tp3257
(dp3258
g2626
I0
sg2627
I0
sg2628
I0
sg2629
I0
sg2630
I0
ss(g47
g17
g76
g25
tp3259
(dp3260
g2626
I0
sg2627
I0
sg2628
I0
sg2629
I0
sg2630
I0
ss(g3
g17
g5
g43
tp3261
(dp3262
g2626
I0
sg2627
I0
sg2628
I0
sg2629
I0
sg2630
I0
ss(g16
g17
g76
g48
tp3263
(dp3264
g2626
I0
sg2627
I0
sg2628
I0
sg2629
I0
sg2630
I0
ss(g16
g4
g42
g6
tp3265
(dp3266
g2626
I0
sg2627
I0
sg2628
I0
sg2629
I0
sg2630
I0
ss(g47
g17
g5
g102
tp3267
(dp3268
g2626
I0
sg2627
I0
sg2628
I0
sg2629
I0
sg2630
I0
ss(g47
g17
g12
g29
tp3269
(dp3270
g2626
I0
sg2627
I0
sg2628
I0
sg2629
I0
sg2630
I0
ss(g16
g11
g28
g29
tp3271
(dp3272
g2626
I0
sg2627
I0
sg2628
I0
sg2629
I0
sg2630
I0
ss(g47
g4
g21
g33
tp3273
(dp3274
g2626
I0
sg2627
I0
sg2628
I0
sg2629
I0
sg2630
I0
ss(g3
g4
g5
g82
tp3275
(dp3276
g2626
I0
sg2627
I0
sg2628
I0
sg2629
I0
sg2630
I0
ss(g3
g11
g5
g82
tp3277
(dp3278
g2626
I0
sg2627
I0
sg2628
I0
sg2629
I0
sg2630
I0
ss(g3
g17
g5
g37
tp3279
(dp3280
g2626
I0
sg2627
I0
sg2628
I0
sg2629
I0
sg2630
I0
ss(g3
g11
g21
g43
tp3281
(dp3282
g2626
I0
sg2627
I0
sg2628
I0
sg2629
I0
sg2630
I0
ss(g10
g4
g12
g69
tp3283
(dp3284
g2626
I0
sg2627
I0
sg2628
I0
sg2629
I0
sg2630
I0
ss(g10
g11
g12
g48
tp3285
(dp3286
g2626
I0
sg2627
I0
sg2628
I0
sg2629
I0
sg2630
I0
ss(g3
g11
g9
g54
tp3287
(dp3288
g2626
I0
sg2627
I0
sg2628
I0
sg2629
I0
sg2630
I0
ss(g47
g4
g12
g82
tp3289
(dp3290
g2626
I0
sg2627
I0
sg2628
I0
sg2629
I0
sg2630
I0
ss(g16
g17
g28
g29
tp3291
(dp3292
g2626
I0
sg2627
I0
sg2628
I0
sg2629
I0
sg2630
I0
ss(g10
g11
g21
g43
tp3293
(dp3294
g2626
I0
sg2627
I0
sg2628
I0
sg2629
I0
sg2630
I0
ss(g47
g11
g28
g102
tp3295
(dp3296
g2626
I0
sg2627
I0
sg2628
I0
sg2629
I0
sg2630
I0
ss(g3
g11
g5
g29
tp3297
(dp3298
g2626
I0
sg2627
I0
sg2628
I0
sg2629
I0
sg2630
I0
ss(g16
g17
g76
g33
tp3299
(dp3300
g2626
I0
sg2627
I0
sg2628
I0
sg2629
I0
sg2630
I0
ss(g10
g4
g5
g6
tp3301
(dp3302
g2626
I0
sg2627
I0
sg2628
I0
sg2629
I0
sg2630
I0
ss(g47
g11
g76
g22
tp3303
(dp3304
g2626
I0
sg2627
I0
sg2628
I0
sg2629
I0
sg2630
I0
ss(g10
g4
g28
g29
tp3305
(dp3306
g2626
I0
sg2627
I0
sg2628
I0
sg2629
I0
sg2630
I0
ss(g3
g17
g42
g33
tp3307
(dp3308
g2626
I0
sg2627
I0
sg2628
I0
sg2629
I0
sg2630
I0
ss(g16
g4
g5
g25
tp3309
(dp3310
g2626
I0
sg2627
I0
sg2628
I0
sg2629
I0
sg2630
I0
ss(g10
g11
g42
g54
tp3311
(dp3312
g2626
I0
sg2627
I0
sg2628
I0
sg2629
I0
sg2630
I0
ss(g3
g11
g9
g22
tp3313
(dp3314
g2626
I0
sg2627
I0
sg2628
I0
sg2629
I0
sg2630
I0
ss(g16
g17
g9
g82
tp3315
(dp3316
g2626
I0
sg2627
I0
sg2628
I0
sg2629
I0
sg2630
I0
ss(g10
g11
g12
g82
tp3317
(dp3318
g2626
I0
sg2627
I0
sg2628
I0
sg2629
I0
sg2630
I0
ss(g47
g4
g12
g33
tp3319
(dp3320
g2626
I0
sg2627
I0
sg2628
I0
sg2629
I0
sg2630
I0
ss(g3
g11
g21
g33
tp3321
(dp3322
g2626
I0
sg2627
I0
sg2628
I0
sg2629
I0
sg2630
I0
ss(g3
g4
g12
g33
tp3323
(dp3324
g2626
I0
sg2627
I0
sg2628
I0
sg2629
I0
sg2630
I0
ss(g3
g4
g76
g22
tp3325
(dp3326
g2626
I0
sg2627
I0
sg2628
I0
sg2629
I0
sg2630
I0
ss(g47
g4
g42
g6
tp3327
(dp3328
g2626
I0
sg2627
I0
sg2628
I0
sg2629
I0
sg2630
I0
ss(g10
g4
g42
g82
tp3329
(dp3330
g2626
I0
sg2627
I0
sg2628
I0
sg2629
I0
sg2630
I0
ss(g16
g4
g5
g69
tp3331
(dp3332
g2626
I0
sg2627
I0
sg2628
I0
sg2629
I0
sg2630
I0
ss(g3
g4
g9
g37
tp3333
(dp3334
g2626
I0
sg2627
I0
sg2628
I0
sg2629
I0
sg2630
I0
ss(g10
g17
g9
g6
tp3335
(dp3336
g2626
I0
sg2627
I0
sg2628
I0
sg2629
I0
sg2630
I0
ss(g3
g4
g76
g43
tp3337
(dp3338
g2626
I0
sg2627
I0
sg2628
I0
sg2629
I0
sg2630
I0
ss(g3
g17
g12
g29
tp3339
(dp3340
g2626
I0
sg2627
I0
sg2628
I0
sg2629
I0
sg2630
I0
ss(g47
g11
g9
g48
tp3341
(dp3342
g2626
I0
sg2627
I0
sg2628
I0
sg2629
I0
sg2630
I0
ss(g10
g4
g76
g33
tp3343
(dp3344
g2626
I0
sg2627
I0
sg2628
I0
sg2629
I0
sg2630
I0
ss(g16
g4
g12
g54
tp3345
(dp3346
g2626
I0
sg2627
I0
sg2628
I0
sg2629
I0
sg2630
I0
ss(g47
g17
g12
g48
tp3347
(dp3348
g2626
I0
sg2627
I0
sg2628
I0
sg2629
I0
sg2630
I0
ss(g10
g17
g5
g48
tp3349
(dp3350
g2626
I0
sg2627
I0
sg2628
I0
sg2629
I0
sg2630
I0
ss(g3
g17
g28
g6
tp3351
(dp3352
g2626
I0
sg2627
I0
sg2628
I0
sg2629
I0
sg2630
I0
ss(g47
g11
g21
g25
tp3353
(dp3354
g2626
I0
sg2627
I0
sg2628
I0
sg2629
I0
sg2630
I0
ss(g16
g17
g12
g6
tp3355
(dp3356
g2626
I0
sg2627
I0
sg2628
I0
sg2629
I0
sg2630
I0
ss(g16
g17
g5
g29
tp3357
(dp3358
g2626
I0
sg2627
I0
sg2628
I0
sg2629
I0
sg2630
I0
ss(g16
g11
g21
g37
tp3359
(dp3360
g2626
F-13.211999999999993
sg2627
F-16.89269999999999
sg2628
F-10.769700899999997
sg2629
F5.997298443451491
sg2630
F-9.6
ss(g16
g17
g12
g22
tp3361
(dp3362
g2626
I0
sg2627
I0
sg2628
I0
sg2629
I0
sg2630
I0
ss(g16
g17
g76
g43
tp3363
(dp3364
g2626
I0
sg2627
I0
sg2628
I0
sg2629
I0
sg2630
I0
ss(g16
g4
g12
g22
tp3365
(dp3366
g2626
I0
sg2627
I0
sg2628
I0
sg2629
I0
sg2630
I0
ss(g3
g17
g76
g25
tp3367
(dp3368
g2626
I0
sg2627
I0
sg2628
I0
sg2629
I0
sg2630
I0
ss(g16
g4
g12
g37
tp3369
(dp3370
g2626
F-3.5999999999999996
sg2627
F-6.6
sg2628
F-0.8999999999999999
sg2629
F3.5400002249999942
sg2630
F-5.159999550000003
ss(g16
g17
g9
g102
tp3371
(dp3372
g2626
I0
sg2627
I0
sg2628
I0
sg2629
I0
sg2630
I0
ss(g47
g11
g5
g22
tp3373
(dp3374
g2626
I0
sg2627
I0
sg2628
I0
sg2629
I0
sg2630
I0
ss(g47
g11
g76
g25
tp3375
(dp3376
g2626
I0
sg2627
I0
sg2628
I0
sg2629
I0
sg2630
I0
ss(g10
g17
g42
g22
tp3377
(dp3378
g2626
I0
sg2627
I0
sg2628
I0
sg2629
I0
sg2630
I0
ss(g3
g4
g76
g54
tp3379
(dp3380
g2626
I0
sg2627
I0
sg2628
I0
sg2629
I0
sg2630
I0
ss(g3
g17
g21
g37
tp3381
(dp3382
g2626
I0
sg2627
I0
sg2628
I0
sg2629
I0
sg2630
I0
ss(g3
g4
g21
g69
tp3383
(dp3384
g2626
I0
sg2627
I0
sg2628
I0
sg2629
I0
sg2630
I0
ss(g47
g4
g5
g25
tp3385
(dp3386
g2626
I0
sg2627
I0
sg2628
I0
sg2629
I0
sg2630
I0
ss(g16
g11
g76
g33
tp3387
(dp3388
g2626
I0
sg2627
I0
sg2628
I0
sg2629
I0
sg2630
I0
ss(g3
g11
g21
g29
tp3389
(dp3390
g2626
I0
sg2627
I0
sg2628
I0
sg2629
I0
sg2630
I0
ss(g10
g11
g5
g82
tp3391
(dp3392
g2626
I0
sg2627
I0
sg2628
I0
sg2629
I0
sg2630
I0
ss(g16
g11
g28
g69
tp3393
(dp3394
g2626
I0
sg2627
I0
sg2628
I0
sg2629
I0
sg2630
I0
ss(g16
g11
g9
g69
tp3395
(dp3396
g2626
I0
sg2627
I0
sg2628
I0
sg2629
I0
sg2630
I0
ss(g3
g17
g28
g69
tp3397
(dp3398
g2626
I0
sg2627
I0
sg2628
I0
sg2629
I0
sg2630
I0
ss(g47
g17
g9
g102
tp3399
(dp3400
g2626
I0
sg2627
I0
sg2628
I0
sg2629
I0
sg2630
I0
ss(g10
g11
g76
g37
tp3401
(dp3402
g2626
F17.19000449999996
sg2627
F31.085140792399123
sg2628
F35.485941997002584
sg2629
F20.099998199999998
sg2630
F66.0522805394023
ss(g10
g11
g5
g102
tp3403
(dp3404
g2626
I0
sg2627
I0
sg2628
I0
sg2629
I0
sg2630
I0
ss(g16
g11
g5
g54
tp3405
(dp3406
g2626
I0
sg2627
I0
sg2628
I0
sg2629
I0
sg2630
I0
ss(g10
g4
g9
g22
tp3407
(dp3408
g2626
I0
sg2627
I0
sg2628
I0
sg2629
I0
sg2630
I0
ss(g10
g4
g28
g43
tp3409
(dp3410
g2626
I0
sg2627
I0
sg2628
I0
sg2629
I0
sg2630
I0
ss(g47
g11
g42
g37
tp3411
(dp3412
g2626
I0
sg2627
F42.24879860710211
sg2628
F39.62760450000001
sg2629
F85.19280160649993
sg2630
I0
ss(g16
g11
g9
g48
tp3413
(dp3414
g2626
I0
sg2627
I0
sg2628
I0
sg2629
I0
sg2630
I0
ss(g3
g4
g5
g22
tp3415
(dp3416
g2626
I0
sg2627
I0
sg2628
I0
sg2629
I0
sg2630
I0
ss(g10
g11
g9
g54
tp3417
(dp3418
g2626
I0
sg2627
I0
sg2628
I0
sg2629
I0
sg2630
I0
ss(g3
g4
g76
g37
tp3419
(dp3420
g2626
I0
sg2627
I0
sg2628
I0
sg2629
I0
sg2630
I0
ss(g10
g17
g5
g54
tp3421
(dp3422
g2626
I0
sg2627
I0
sg2628
I0
sg2629
I0
sg2630
I0
ss(g3
g11
g42
g29
tp3423
(dp3424
g2626
I0
sg2627
I0
sg2628
I0
sg2629
I0
sg2630
I0
ss(g47
g4
g9
g43
tp3425
(dp3426
g2626
I0
sg2627
I0
sg2628
I0
sg2629
I0
sg2630
I0
ss(g3
g11
g42
g102
tp3427
(dp3428
g2626
I0
sg2627
I0
sg2628
I0
sg2629
I0
sg2630
I0
ss(g47
g17
g9
g82
tp3429
(dp3430
g2626
I0
sg2627
I0
sg2628
I0
sg2629
I0
sg2630
I0
ss(g10
g17
g21
g6
tp3431
(dp3432
g2626
I0
sg2627
I0
sg2628
I0
sg2629
I0
sg2630
I0
ss(g16
g17
g21
g33
tp3433
(dp3434
g2626
I0
sg2627
I0
sg2628
I0
sg2629
I0
sg2630
I0
ss(g16
g4
g28
g69
tp3435
(dp3436
g2626
I0
sg2627
I0
sg2628
I0
sg2629
I0
sg2630
I0
ss(g16
g11
g76
g102
tp3437
(dp3438
g2626
I0
sg2627
I0
sg2628
I0
sg2629
I0
sg2630
I0
ss(g16
g17
g12
g82
tp3439
(dp3440
g2626
I0
sg2627
I0
sg2628
I0
sg2629
I0
sg2630
I0
ss(g3
g4
g12
g43
tp3441
(dp3442
g2626
I0
sg2627
I0
sg2628
I0
sg2629
I0
sg2630
I0
ss(g47
g4
g21
g48
tp3443
(dp3444
g2626
I0
sg2627
I0
sg2628
I0
sg2629
I0
sg2630
I0
ss(g47
g17
g12
g82
tp3445
(dp3446
g2626
I0
sg2627
I0
sg2628
I0
sg2629
I0
sg2630
I0
ss(g10
g4
g12
g25
tp3447
(dp3448
g2626
I0
sg2627
I0
sg2628
I0
sg2629
I0
sg2630
I0
ss(g3
g17
g12
g6
tp3449
(dp3450
g2626
I0
sg2627
I0
sg2628
I0
sg2629
I0
sg2630
I0
ss(g10
g11
g9
g33
tp3451
(dp3452
g2626
I0
sg2627
I0
sg2628
I0
sg2629
I0
sg2630
I0
ss(g10
g11
g28
g48
tp3453
(dp3454
g2626
I0
sg2627
I0
sg2628
I0
sg2629
I0
sg2630
I0
ss(g16
g11
g28
g22
tp3455
(dp3456
g2626
I0
sg2627
I0
sg2628
I0
sg2629
I0
sg2630
I0
ss(g47
g4
g28
g33
tp3457
(dp3458
g2626
I0
sg2627
I0
sg2628
I0
sg2629
I0
sg2630
I0
ss(g47
g17
g28
g69
tp3459
(dp3460
g2626
I0
sg2627
I0
sg2628
I0
sg2629
I0
sg2630
I0
ss(g3
g17
g28
g22
tp3461
(dp3462
g2626
I0
sg2627
I0
sg2628
I0
sg2629
I0
sg2630
I0
ss(g10
g17
g12
g54
tp3463
(dp3464
g2626
I0
sg2627
I0
sg2628
I0
sg2629
I0
sg2630
I0
ss(g10
g17
g9
g82
tp3465
(dp3466
g2626
I0
sg2627
I0
sg2628
I0
sg2629
I0
sg2630
I0
ss(g3
g11
g5
g37
tp3467
(dp3468
g2626
I0
sg2627
I0
sg2628
I0
sg2629
I0
sg2630
I0
ss(g10
g17
g9
g102
tp3469
(dp3470
g2626
I0
sg2627
I0
sg2628
I0
sg2629
I0
sg2630
I0
ss(g10
g4
g42
g6
tp3471
(dp3472
g2626
I0
sg2627
I0
sg2628
I0
sg2629
I0
sg2630
I0
ss(g16
g11
g12
g33
tp3473
(dp3474
g2626
I0
sg2627
I0
sg2628
I0
sg2629
I0
sg2630
I0
ss(g3
g4
g28
g6
tp3475
(dp3476
g2626
I0
sg2627
I0
sg2628
I0
sg2629
I0
sg2630
I0
ss(g10
g4
g12
g33
tp3477
(dp3478
g2626
I0
sg2627
I0
sg2628
I0
sg2629
I0
sg2630
I0
ss(g3
g4
g76
g102
tp3479
(dp3480
g2626
I0
sg2627
I0
sg2628
I0
sg2629
I0
sg2630
I0
ss(g16
g4
g9
g69
tp3481
(dp3482
g2626
I0
sg2627
I0
sg2628
I0
sg2629
I0
sg2630
I0
ss(g16
g11
g76
g29
tp3483
(dp3484
g2626
I0
sg2627
I0
sg2628
I0
sg2629
I0
sg2630
I0
ss(g10
g4
g21
g29
tp3485
(dp3486
g2626
I0
sg2627
I0
sg2628
I0
sg2629
I0
sg2630
I0
ss(g47
g4
g76
g22
tp3487
(dp3488
g2626
I0
sg2627
I0
sg2628
I0
sg2629
I0
sg2630
I0
ss(g3
g11
g9
g82
tp3489
(dp3490
g2626
I0
sg2627
I0
sg2628
I0
sg2629
I0
sg2630
I0
ss(g47
g17
g12
g43
tp3491
(dp3492
g2626
I0
sg2627
I0
sg2628
I0
sg2629
I0
sg2630
I0
ss(g47
g11
g21
g43
tp3493
(dp3494
g2626
I0
sg2627
I0
sg2628
I0
sg2629
I0
sg2630
I0
ss(g10
g17
g12
g33
tp3495
(dp3496
g2626
I0
sg2627
I0
sg2628
I0
sg2629
I0
sg2630
I0
ss(g16
g11
g42
g69
tp3497
(dp3498
g2626
I0
sg2627
I0
sg2628
I0
sg2629
I0
sg2630
I0
ss(g16
g17
g42
g54
tp3499
(dp3500
g2626
I0
sg2627
I0
sg2628
I0
sg2629
I0
sg2630
I0
ss(g47
g17
g5
g22
tp3501
(dp3502
g2626
I0
sg2627
I0
sg2628
I0
sg2629
I0
sg2630
I0
ss(g16
g17
g76
g69
tp3503
(dp3504
g2626
I0
sg2627
I0
sg2628
I0
sg2629
I0
sg2630
I0
ss(g47
g17
g76
g33
tp3505
(dp3506
g2626
I0
sg2627
I0
sg2628
I0
sg2629
I0
sg2630
I0
ss(g10
g4
g5
g82
tp3507
(dp3508
g2626
I0
sg2627
I0
sg2628
I0
sg2629
I0
sg2630
I0
ss(g16
g4
g42
g69
tp3509
(dp3510
g2626
I0
sg2627
I0
sg2628
I0
sg2629
I0
sg2630
I0
ss(g47
g17
g42
g33
tp3511
(dp3512
g2626
I0
sg2627
I0
sg2628
I0
sg2629
I0
sg2630
I0
ss(g16
g11
g21
g102
tp3513
(dp3514
g2626
I0
sg2627
I0
sg2628
I0
sg2629
I0
sg2630
I0
ss(g3
g17
g12
g37
tp3515
(dp3516
g2626
I0
sg2627
I0
sg2628
I0
sg2629
I0
sg2630
I0
ss(g47
g11
g76
g6
tp3517
(dp3518
g2626
I0
sg2627
I0
sg2628
I0
sg2629
I0
sg2630
I0
ss(g16
g11
g21
g43
tp3519
(dp3520
g2626
I0
sg2627
I0
sg2628
I0
sg2629
I0
sg2630
I0
ss(g47
g11
g28
g48
tp3521
(dp3522
g2626
I0
sg2627
I0
sg2628
I0
sg2629
I0
sg2630
I0
ss(g10
g4
g21
g25
tp3523
(dp3524
g2626
I0
sg2627
I0
sg2628
I0
sg2629
I0
sg2630
I0
ss(g10
g4
g12
g48
tp3525
(dp3526
g2626
I0
sg2627
I0
sg2628
I0
sg2629
I0
sg2630
I0
ss(g16
g17
g42
g22
tp3527
(dp3528
g2626
I0
sg2627
I0
sg2628
I0
sg2629
I0
sg2630
I0
ss(g10
g17
g21
g37
tp3529
(dp3530
g2626
F-0.8999999999999999
sg2627
F-8.842399090594345
sg2628
F-0.8999999999999999
sg2629
F4.588186583565
sg2630
F19.839489878010145
ss(g47
g4
g5
g29
tp3531
(dp3532
g2626
I0
sg2627
I0
sg2628
I0
sg2629
I0
sg2630
I0
ss(g10
g11
g21
g29
tp3533
(dp3534
g2626
I0
sg2627
I0
sg2628
I0
sg2629
I0
sg2630
I0
ss(g10
g11
g21
g37
tp3535
(dp3536
g2626
F6.5454555300305515
sg2627
F0.5424253746959984
sg2628
F3.0440418095637067
sg2629
F2.178860090206279
sg2630
F2.1814954956131647
ss(g3
g17
g9
g43
tp3537
(dp3538
g2626
I0
sg2627
I0
sg2628
I0
sg2629
I0
sg2630
I0
ss(g10
g11
g42
g33
tp3539
(dp3540
g2626
I0
sg2627
I0
sg2628
I0
sg2629
I0
sg2630
I0
ss(g10
g4
g76
g69
tp3541
(dp3542
g2626
I0
sg2627
I0
sg2628
I0
sg2629
I0
sg2630
I0
ss(g16
g4
g21
g48
tp3543
(dp3544
g2626
I0
sg2627
I0
sg2628
I0
sg2629
I0
sg2630
I0
ss(g10
g17
g5
g22
tp3545
(dp3546
g2626
I0
sg2627
I0
sg2628
I0
sg2629
I0
sg2630
I0
ss(g47
g4
g5
g102
tp3547
(dp3548
g2626
I0
sg2627
I0
sg2628
I0
sg2629
I0
sg2630
I0
ss(g16
g4
g42
g82
tp3549
(dp3550
g2626
I0
sg2627
I0
sg2628
I0
sg2629
I0
sg2630
I0
ss(g16
g11
g42
g22
tp3551
(dp3552
g2626
I0
sg2627
I0
sg2628
I0
sg2629
I0
sg2630
I0
ss(g16
g17
g12
g43
tp3553
(dp3554
g2626
I0
sg2627
I0
sg2628
I0
sg2629
I0
sg2630
I0
ss(g16
g17
g76
g22
tp3555
(dp3556
g2626
I0
sg2627
I0
sg2628
I0
sg2629
I0
sg2630
I0
ss(g16
g4
g76
g22
tp3557
(dp3558
g2626
I0
sg2627
I0
sg2628
I0
sg2629
I0
sg2630
I0
ss(g16
g11
g76
g6
tp3559
(dp3560
g2626
I0
sg2627
I0
sg2628
I0
sg2629
I0
sg2630
I0
ss(g47
g11
g9
g102
tp3561
(dp3562
g2626
I0
sg2627
I0
sg2628
I0
sg2629
I0
sg2630
I0
ss(g47
g11
g28
g33
tp3563
(dp3564
g2626
I0
sg2627
I0
sg2628
I0
sg2629
I0
sg2630
I0
ss(g3
g17
g76
g6
tp3565
(dp3566
g2626
I0
sg2627
I0
sg2628
I0
sg2629
I0
sg2630
I0
ss(g10
g4
g21
g37
tp3567
(dp3568
g2626
F-4.2299999999999995
sg2627
F7.1367966
sg2628
F7.637996849999993
sg2629
F-1.0083752250000035
sg2630
F-0.8999999999999999
ss(g10
g17
g42
g43
tp3569
(dp3570
g2626
I0
sg2627
I0
sg2628
I0
sg2629
I0
sg2630
I0
ss(g10
g11
g76
g29
tp3571
(dp3572
g2626
I0
sg2627
I0
sg2628
I0
sg2629
I0
sg2630
I0
ss(g10
g4
g5
g22
tp3573
(dp3574
g2626
I0
sg2627
I0
sg2628
I0
sg2629
I0
sg2630
I0
ss(g3
g4
g42
g33
tp3575
(dp3576
g2626
I0
sg2627
I0
sg2628
I0
sg2629
I0
sg2630
I0
ss(g47
g11
g76
g48
tp3577
(dp3578
g2626
I0
sg2627
I0
sg2628
I0
sg2629
I0
sg2630
I0
ss(g10
g17
g12
g69
tp3579
(dp3580
g2626
I0
sg2627
I0
sg2628
I0
sg2629
I0
sg2630
I0
ss(g3
g4
g9
g43
tp3581
(dp3582
g2626
I0
sg2627
I0
sg2628
I0
sg2629
I0
sg2630
I0
ss(g3
g11
g76
g69
tp3583
(dp3584
g2626
I0
sg2627
I0
sg2628
I0
sg2629
I0
sg2630
I0
ss(g3
g11
g76
g43
tp3585
(dp3586
g2626
I0
sg2627
I0
sg2628
I0
sg2629
I0
sg2630
I0
ss(g3
g4
g42
g43
tp3587
(dp3588
g2626
I0
sg2627
I0
sg2628
I0
sg2629
I0
sg2630
I0
ss(g16
g17
g76
g54
tp3589
(dp3590
g2626
I0
sg2627
I0
sg2628
I0
sg2629
I0
sg2630
I0
ss(g47
g17
g28
g82
tp3591
(dp3592
g2626
I0
sg2627
I0
sg2628
I0
sg2629
I0
sg2630
I0
ss(g10
g17
g5
g102
tp3593
(dp3594
g2626
I0
sg2627
I0
sg2628
I0
sg2629
I0
sg2630
I0
ss(g10
g4
g76
g82
tp3595
(dp3596
g2626
I0
sg2627
I0
sg2628
I0
sg2629
I0
sg2630
I0
ss(g3
g4
g76
g48
tp3597
(dp3598
g2626
I0
sg2627
I0
sg2628
I0
sg2629
I0
sg2630
I0
ss(g16
g11
g28
g102
tp3599
(dp3600
g2626
I0
sg2627
I0
sg2628
I0
sg2629
I0
sg2630
I0
ss(g10
g11
g21
g48
tp3601
(dp3602
g2626
I0
sg2627
I0
sg2628
I0
sg2629
I0
sg2630
I0
ss(g10
g4
g5
g102
tp3603
(dp3604
g2626
I0
sg2627
I0
sg2628
I0
sg2629
I0
sg2630
I0
ss(g10
g4
g28
g22
tp3605
(dp3606
g2626
I0
sg2627
I0
sg2628
I0
sg2629
I0
sg2630
I0
ss(g3
g17
g28
g102
tp3607
(dp3608
g2626
I0
sg2627
I0
sg2628
I0
sg2629
I0
sg2630
I0
ss(g3
g11
g21
g25
tp3609
(dp3610
g2626
I0
sg2627
I0
sg2628
I0
sg2629
I0
sg2630
I0
ss(g47
g4
g42
g29
tp3611
(dp3612
g2626
I0
sg2627
I0
sg2628
I0
sg2629
I0
sg2630
I0
ss(g47
g4
g9
g22
tp3613
(dp3614
g2626
I0
sg2627
I0
sg2628
I0
sg2629
I0
sg2630
I0
ss(g3
g11
g9
g48
tp3615
(dp3616
g2626
I0
sg2627
I0
sg2628
I0
sg2629
I0
sg2630
I0
ss(g3
g4
g5
g37
tp3617
(dp3618
g2626
I0
sg2627
I0
sg2628
I0
sg2629
I0
sg2630
I0
ss(g10
g4
g28
g6
tp3619
(dp3620
g2626
I0
sg2627
I0
sg2628
I0
sg2629
I0
sg2630
I0
ss(g10
g11
g9
g6
tp3621
(dp3622
g2626
I0
sg2627
I0
sg2628
I0
sg2629
I0
sg2630
I0
ss(g16
g17
g28
g25
tp3623
(dp3624
g2626
I0
sg2627
I0
sg2628
I0
sg2629
I0
sg2630
I0
ss(g47
g11
g5
g102
tp3625
(dp3626
g2626
I0
sg2627
I0
sg2628
I0
sg2629
I0
sg2630
I0
ss(g3
g17
g12
g48
tp3627
(dp3628
g2626
I0
sg2627
I0
sg2628
I0
sg2629
I0
sg2630
I0
ss(g3
g11
g28
g25
tp3629
(dp3630
g2626
I0
sg2627
I0
sg2628
I0
sg2629
I0
sg2630
I0
ss(g47
g17
g12
g54
tp3631
(dp3632
g2626
I0
sg2627
I0
sg2628
I0
sg2629
I0
sg2630
I0
ss(g16
g11
g21
g6
tp3633
(dp3634
g2626
I0
sg2627
I0
sg2628
I0
sg2629
I0
sg2630
I0
ss(g10
g4
g5
g69
tp3635
(dp3636
g2626
I0
sg2627
I0
sg2628
I0
sg2629
I0
sg2630
I0
ss(g3
g17
g42
g82
tp3637
(dp3638
g2626
I0
sg2627
I0
sg2628
I0
sg2629
I0
sg2630
I0
ss(g10
g4
g21
g102
tp3639
(dp3640
g2626
I0
sg2627
I0
sg2628
I0
sg2629
I0
sg2630
I0
ss(g3
g17
g21
g6
tp3641
(dp3642
g2626
I0
sg2627
I0
sg2628
I0
sg2629
I0
sg2630
I0
ss(g3
g17
g21
g22
tp3643
(dp3644
g2626
I0
sg2627
I0
sg2628
I0
sg2629
I0
sg2630
I0
ss(g47
g11
g12
g37
tp3645
(dp3646
g2626
F23.016898486823216
sg2627
F14.88615291463006
sg2628
F18.814893639167465
sg2629
F-1.3757290475563853
sg2630
F13.422659295853265
ss(g16
g4
g12
g29
tp3647
(dp3648
g2626
I0
sg2627
I0
sg2628
I0
sg2629
I0
sg2630
I0
ss(g47
g17
g9
g37
tp3649
(dp3650
g2626
I0
sg2627
F17.678013381090004
sg2628
I0
sg2629
F11.819999999999999
sg2630
I0
ss(g16
g4
g5
g22
tp3651
(dp3652
g2626
I0
sg2627
I0
sg2628
I0
sg2629
I0
sg2630
I0
ss(g47
g17
g9
g22
tp3653
(dp3654
g2626
I0
sg2627
I0
sg2628
I0
sg2629
I0
sg2630
I0
ss(g3
g11
g28
g33
tp3655
(dp3656
g2626
I0
sg2627
I0
sg2628
I0
sg2629
I0
sg2630
I0
ss(g47
g17
g42
g22
tp3657
(dp3658
g2626
I0
sg2627
I0
sg2628
I0
sg2629
I0
sg2630
I0
ss(g10
g11
g42
g69
tp3659
(dp3660
g2626
I0
sg2627
I0
sg2628
I0
sg2629
I0
sg2630
I0
ss(g16
g17
g5
g37
tp3661
(dp3662
g2626
I0
sg2627
I0
sg2628
I0
sg2629
I0
sg2630
I0
ss(g10
g11
g42
g43
tp3663
(dp3664
g2626
I0
sg2627
I0
sg2628
I0
sg2629
I0
sg2630
I0
ss(g47
g4
g76
g33
tp3665
(dp3666
g2626
I0
sg2627
I0
sg2628
I0
sg2629
I0
sg2630
I0
ss(g16
g11
g9
g6
tp3667
(dp3668
g2626
I0
sg2627
I0
sg2628
I0
sg2629
I0
sg2630
I0
ss(g47
g17
g76
g6
tp3669
(dp3670
g2626
I0
sg2627
I0
sg2628
I0
sg2629
I0
sg2630
I0
ss(g47
g17
g42
g37
tp3671
(dp3672
g2626
I0
sg2627
I0
sg2628
I0
sg2629
F2.4599959499999997
sg2630
I0
ss(g10
g11
g28
g33
tp3673
(dp3674
g2626
I0
sg2627
I0
sg2628
I0
sg2629
I0
sg2630
I0
ss(g47
g17
g9
g29
tp3675
(dp3676
g2626
I0
sg2627
I0
sg2628
I0
sg2629
I0
sg2630
I0
ss(g16
g11
g5
g69
tp3677
(dp3678
g2626
I0
sg2627
I0
sg2628
I0
sg2629
I0
sg2630
I0
ss(g10
g4
g9
g69
tp3679
(dp3680
g2626
I0
sg2627
I0
sg2628
I0
sg2629
I0
sg2630
I0
ss(g3
g17
g9
g25
tp3681
(dp3682
g2626
I0
sg2627
I0
sg2628
I0
sg2629
I0
sg2630
I0
ss(g3
g11
g9
g69
tp3683
(dp3684
g2626
I0
sg2627
I0
sg2628
I0
sg2629
I0
sg2630
I0
ss(g47
g17
g5
g43
tp3685
(dp3686
g2626
I0
sg2627
I0
sg2628
I0
sg2629
I0
sg2630
I0
ss(g47
g11
g9
g37
tp3687
(dp3688
g2626
F10.091991895968336
sg2627
F15.17941023073465
sg2628
F18.343836523835243
sg2629
F4.779003936895486
sg2630
F13.5281654820682
ss(g10
g11
g12
g25
tp3689
(dp3690
g2626
I0
sg2627
I0
sg2628
I0
sg2629
I0
sg2630
I0
ss(g3
g17
g42
g25
tp3691
(dp3692
g2626
I0
sg2627
I0
sg2628
I0
sg2629
I0
sg2630
I0
ss(g16
g17
g5
g22
tp3693
(dp3694
g2626
I0
sg2627
I0
sg2628
I0
sg2629
I0
sg2630
I0
ss(g47
g11
g76
g29
tp3695
(dp3696
g2626
I0
sg2627
I0
sg2628
I0
sg2629
I0
sg2630
I0
ss(g3
g11
g12
g37
tp3697
(dp3698
g2626
I0
sg2627
I0
sg2628
I0
sg2629
I0
sg2630
I0
ss(g3
g11
g28
g82
tp3699
(dp3700
g2626
I0
sg2627
I0
sg2628
I0
sg2629
I0
sg2630
I0
ss(g16
g4
g5
g37
tp3701
(dp3702
g2626
I0
sg2627
I0
sg2628
I0
sg2629
I0
sg2630
I0
ss(g3
g11
g21
g37
tp3703
(dp3704
g2626
I0
sg2627
I0
sg2628
I0
sg2629
I0
sg2630
I0
ss(g16
g17
g28
g82
tp3705
(dp3706
g2626
I0
sg2627
I0
sg2628
I0
sg2629
I0
sg2630
I0
ss(g47
g17
g5
g48
tp3707
(dp3708
g2626
I0
sg2627
I0
sg2628
I0
sg2629
I0
sg2630
I0
ss(g10
g17
g12
g48
tp3709
(dp3710
g2626
I0
sg2627
I0
sg2628
I0
sg2629
I0
sg2630
I0
ss(g47
g17
g21
g69
tp3711
(dp3712
g2626
I0
sg2627
I0
sg2628
I0
sg2629
I0
sg2630
I0
ss(g10
g11
g76
g33
tp3713
(dp3714
g2626
I0
sg2627
I0
sg2628
I0
sg2629
I0
sg2630
I0
ss(g10
g11
g21
g82
tp3715
(dp3716
g2626
I0
sg2627
I0
sg2628
I0
sg2629
I0
sg2630
I0
ss(g47
g4
g5
g48
tp3717
(dp3718
g2626
I0
sg2627
I0
sg2628
I0
sg2629
I0
sg2630
I0
ss(g16
g11
g12
g22
tp3719
(dp3720
g2626
I0
sg2627
I0
sg2628
I0
sg2629
I0
sg2630
I0
ss(g10
g4
g12
g54
tp3721
(dp3722
g2626
I0
sg2627
I0
sg2628
I0
sg2629
I0
sg2630
I0
ss(g3
g17
g5
g82
tp3723
(dp3724
g2626
I0
sg2627
I0
sg2628
I0
sg2629
I0
sg2630
I0
ss(g47
g4
g5
g82
tp3725
(dp3726
g2626
I0
sg2627
I0
sg2628
I0
sg2629
I0
sg2630
I0
ss(g10
g4
g9
g6
tp3727
(dp3728
g2626
I0
sg2627
I0
sg2628
I0
sg2629
I0
sg2630
I0
ss(g47
g11
g9
g22
tp3729
(dp3730
g2626
I0
sg2627
I0
sg2628
I0
sg2629
I0
sg2630
I0
ss(g16
g17
g21
g82
tp3731
(dp3732
g2626
I0
sg2627
I0
sg2628
I0
sg2629
I0
sg2630
I0
ss(g3
g11
g76
g37
tp3733
(dp3734
g2626
I0
sg2627
I0
sg2628
I0
sg2629
I0
sg2630
I0
ss(g47
g4
g28
g37
tp3735
(dp3736
g2626
I0
sg2627
I0
sg2628
I0
sg2629
I0
sg2630
I0
ss(g10
g17
g9
g43
tp3737
(dp3738
g2626
I0
sg2627
I0
sg2628
I0
sg2629
I0
sg2630
I0
ss(g10
g4
g9
g48
tp3739
(dp3740
g2626
I0
sg2627
I0
sg2628
I0
sg2629
I0
sg2630
I0
ss(g16
g4
g21
g33
tp3741
(dp3742
g2626
I0
sg2627
I0
sg2628
I0
sg2629
I0
sg2630
I0
ss(g47
g11
g21
g22
tp3743
(dp3744
g2626
I0
sg2627
I0
sg2628
I0
sg2629
I0
sg2630
I0
ss(g16
g4
g5
g82
tp3745
(dp3746
g2626
I0
sg2627
I0
sg2628
I0
sg2629
I0
sg2630
I0
ss(g10
g17
g76
g33
tp3747
(dp3748
g2626
I0
sg2627
I0
sg2628
I0
sg2629
I0
sg2630
I0
ss(g10
g4
g21
g22
tp3749
(dp3750
g2626
I0
sg2627
I0
sg2628
I0
sg2629
I0
sg2630
I0
ss(g47
g4
g76
g82
tp3751
(dp3752
g2626
I0
sg2627
I0
sg2628
I0
sg2629
I0
sg2630
I0
ss(g16
g11
g12
g37
tp3753
(dp3754
g2626
F-16.32
sg2627
F-15.918393640649988
sg2628
F-18.3
sg2629
F-14.270399779499993
sg2630
F-17.771109307910855
ss(g16
g17
g9
g29
tp3755
(dp3756
g2626
I0
sg2627
I0
sg2628
I0
sg2629
I0
sg2630
I0
ss(g16
g4
g9
g33
tp3757
(dp3758
g2626
I0
sg2627
I0
sg2628
I0
sg2629
I0
sg2630
I0
ss(g16
g11
g28
g6
tp3759
(dp3760
g2626
I0
sg2627
I0
sg2628
I0
sg2629
I0
sg2630
I0
ss(g10
g11
g76
g82
tp3761
(dp3762
g2626
I0
sg2627
I0
sg2628
I0
sg2629
I0
sg2630
I0
ss(g16
g4
g21
g29
tp3763
(dp3764
g2626
I0
sg2627
I0
sg2628
I0
sg2629
I0
sg2630
I0
ss(g47
g11
g12
g22
tp3765
(dp3766
g2626
I0
sg2627
I0
sg2628
I0
sg2629
I0
sg2630
I0
ss(g16
g17
g42
g102
tp3767
(dp3768
g2626
I0
sg2627
I0
sg2628
I0
sg2629
I0
sg2630
I0
ss(g16
g17
g21
g25
tp3769
(dp3770
g2626
I0
sg2627
I0
sg2628
I0
sg2629
I0
sg2630
I0
ss(g3
g17
g12
g43
tp3771
(dp3772
g2626
I0
sg2627
I0
sg2628
I0
sg2629
I0
sg2630
I0
ss(g3
g11
g12
g102
tp3773
(dp3774
g2626
I0
sg2627
I0
sg2628
I0
sg2629
I0
sg2630
I0
ss(g47
g4
g42
g22
tp3775
(dp3776
g2626
I0
sg2627
I0
sg2628
I0
sg2629
I0
sg2630
I0
ss(g10
g17
g28
g6
tp3777
(dp3778
g2626
I0
sg2627
I0
sg2628
I0
sg2629
I0
sg2630
I0
ss(g47
g4
g42
g69
tp3779
(dp3780
g2626
I0
sg2627
I0
sg2628
I0
sg2629
I0
sg2630
I0
ss(g47
g4
g28
g54
tp3781
(dp3782
g2626
I0
sg2627
I0
sg2628
I0
sg2629
I0
sg2630
I0
ss(g10
g4
g5
g43
tp3783
(dp3784
g2626
I0
sg2627
I0
sg2628
I0
sg2629
I0
sg2630
I0
ss(g16
g17
g12
g29
tp3785
(dp3786
g2626
I0
sg2627
I0
sg2628
I0
sg2629
I0
sg2630
I0
ss(g47
g4
g9
g33
tp3787
(dp3788
g2626
I0
sg2627
I0
sg2628
I0
sg2629
I0
sg2630
I0
ss(g10
g17
g28
g25
tp3789
(dp3790
g2626
I0
sg2627
I0
sg2628
I0
sg2629
I0
sg2630
I0
ss(g3
g4
g12
g25
tp3791
(dp3792
g2626
I0
sg2627
I0
sg2628
I0
sg2629
I0
sg2630
I0
ss(g3
g11
g76
g25
tp3793
(dp3794
g2626
I0
sg2627
I0
sg2628
I0
sg2629
I0
sg2630
I0
ss(g10
g4
g5
g37
tp3795
(dp3796
g2626
I0
sg2627
I0
sg2628
I0
sg2629
I0
sg2630
I0
ss(g3
g17
g12
g25
tp3797
(dp3798
g2626
I0
sg2627
I0
sg2628
I0
sg2629
I0
sg2630
I0
ss(g47
g4
g12
g29
tp3799
(dp3800
g2626
I0
sg2627
I0
sg2628
I0
sg2629
I0
sg2630
I0
ss(g16
g11
g12
g54
tp3801
(dp3802
g2626
I0
sg2627
I0
sg2628
I0
sg2629
I0
sg2630
I0
ss(g3
g4
g12
g54
tp3803
(dp3804
g2626
I0
sg2627
I0
sg2628
I0
sg2629
I0
sg2630
I0
ss(g10
g11
g12
g33
tp3805
(dp3806
g2626
I0
sg2627
I0
sg2628
I0
sg2629
I0
sg2630
I0
ss(g10
g17
g12
g29
tp3807
(dp3808
g2626
I0
sg2627
I0
sg2628
I0
sg2629
I0
sg2630
I0
ss(g47
g4
g9
g25
tp3809
(dp3810
g2626
I0
sg2627
I0
sg2628
I0
sg2629
I0
sg2630
I0
ss(g16
g11
g76
g37
tp3811
(dp3812
g2626
F-9.6
sg2627
F-16.32
sg2628
I0
sg2629
F-1.270976575634993
sg2630
I0
ss(g3
g17
g9
g102
tp3813
(dp3814
g2626
I0
sg2627
I0
sg2628
I0
sg2629
I0
sg2630
I0
ss(g10
g11
g5
g37
tp3815
(dp3816
g2626
F46.84181128259999
sg2627
F36.660000000000004
sg2628
I0
sg2629
I0
sg2630
I0
ss(g47
g4
g9
g54
tp3817
(dp3818
g2626
I0
sg2627
I0
sg2628
I0
sg2629
I0
sg2630
I0
ss(g10
g17
g5
g37
tp3819
(dp3820
g2626
F53.569612300270656
sg2627
F19.680004500000013
sg2628
I0
sg2629
I0
sg2630
I0
ss(g10
g4
g21
g82
tp3821
(dp3822
g2626
I0
sg2627
I0
sg2628
I0
sg2629
I0
sg2630
I0
ss(g10
g17
g76
g22
tp3823
(dp3824
g2626
I0
sg2627
I0
sg2628
I0
sg2629
I0
sg2630
I0
ss(g10
g11
g21
g22
tp3825
(dp3826
g2626
I0
sg2627
I0
sg2628
I0
sg2629
I0
sg2630
I0
ss(g47
g17
g28
g48
tp3827
(dp3828
g2626
I0
sg2627
I0
sg2628
I0
sg2629
I0
sg2630
I0
ss(g3
g4
g42
g48
tp3829
(dp3830
g2626
I0
sg2627
I0
sg2628
I0
sg2629
I0
sg2630
I0
ss(g10
g4
g42
g69
tp3831
(dp3832
g2626
I0
sg2627
I0
sg2628
I0
sg2629
I0
sg2630
I0
ss(g47
g11
g42
g82
tp3833
(dp3834
g2626
I0
sg2627
I0
sg2628
I0
sg2629
I0
sg2630
I0
ss(g10
g4
g5
g25
tp3835
(dp3836
g2626
I0
sg2627
I0
sg2628
I0
sg2629
I0
sg2630
I0
ss(g47
g17
g5
g69
tp3837
(dp3838
g2626
I0
sg2627
I0
sg2628
I0
sg2629
I0
sg2630
I0
ss(g47
g17
g42
g48
tp3839
(dp3840
g2626
I0
sg2627
I0
sg2628
I0
sg2629
I0
sg2630
I0
ss(g47
g4
g12
g37
tp3841
(dp3842
g2626
F21.48419361
sg2627
F13.260197507717908
sg2628
F-0.8999999999999999
sg2629
I0
sg2630
I0
ss(g47
g4
g76
g6
tp3843
(dp3844
g2626
I0
sg2627
I0
sg2628
I0
sg2629
I0
sg2630
I0
ss(g47
g11
g76
g82
tp3845
(dp3846
g2626
I0
sg2627
I0
sg2628
I0
sg2629
I0
sg2630
I0
ss(g10
g11
g5
g43
tp3847
(dp3848
g2626
I0
sg2627
I0
sg2628
I0
sg2629
I0
sg2630
I0
ss(g10
g11
g28
g54
tp3849
(dp3850
g2626
I0
sg2627
I0
sg2628
I0
sg2629
I0
sg2630
I0
ss(g47
g11
g76
g43
tp3851
(dp3852
g2626
I0
sg2627
I0
sg2628
I0
sg2629
I0
sg2630
I0
ss(g16
g11
g42
g6
tp3853
(dp3854
g2626
I0
sg2627
I0
sg2628
I0
sg2629
I0
sg2630
I0
ss(g3
g17
g9
g33
tp3855
(dp3856
g2626
I0
sg2627
I0
sg2628
I0
sg2629
I0
sg2630
I0
ss(g47
g4
g9
g37
tp3857
(dp3858
g2626
F28.029787340652533
sg2627
F11.82000134999999
sg2628
I0
sg2629
F-0.8999999999999999
sg2630
F2.4
ss(g16
g17
g76
g6
tp3859
(dp3860
g2626
I0
sg2627
I0
sg2628
I0
sg2629
I0
sg2630
I0
ss(g10
g11
g42
g22
tp3861
(dp3862
g2626
I0
sg2627
I0
sg2628
I0
sg2629
I0
sg2630
I0
ss(g10
g4
g5
g33
tp3863
(dp3864
g2626
I0
sg2627
I0
sg2628
I0
sg2629
I0
sg2630
I0
ss(g16
g11
g42
g25
tp3865
(dp3866
g2626
I0
sg2627
I0
sg2628
I0
sg2629
I0
sg2630
I0
ss(g16
g4
g12
g102
tp3867
(dp3868
g2626
I0
sg2627
I0
sg2628
I0
sg2629
I0
sg2630
I0
ss(g16
g17
g76
g25
tp3869
(dp3870
g2626
I0
sg2627
I0
sg2628
I0
sg2629
I0
sg2630
I0
ss(g16
g4
g76
g48
tp3871
(dp3872
g2626
I0
sg2627
I0
sg2628
I0
sg2629
I0
sg2630
I0
ss(g3
g11
g28
g69
tp3873
(dp3874
g2626
I0
sg2627
I0
sg2628
I0
sg2629
I0
sg2630
I0
ss(g10
g17
g9
g25
tp3875
(dp3876
g2626
I0
sg2627
I0
sg2628
I0
sg2629
I0
sg2630
I0
ss(g3
g11
g42
g54
tp3877
(dp3878
g2626
I0
sg2627
I0
sg2628
I0
sg2629
I0
sg2630
I0
ss(g16
g4
g21
g82
tp3879
(dp3880
g2626
I0
sg2627
I0
sg2628
I0
sg2629
I0
sg2630
I0
ss(g47
g17
g9
g43
tp3881
(dp3882
g2626
I0
sg2627
I0
sg2628
I0
sg2629
I0
sg2630
I0
ss(g16
g4
g28
g6
tp3883
(dp3884
g2626
I0
sg2627
I0
sg2628
I0
sg2629
I0
sg2630
I0
ss(g47
g17
g28
g25
tp3885
(dp3886
g2626
I0
sg2627
I0
sg2628
I0
sg2629
I0
sg2630
I0
ss(g10
g17
g76
g37
tp3887
(dp3888
g2626
F6.599998649999999
sg2627
F3.540000450000013
sg2628
F11.820000000000006
sg2629
F20.399550534774676
sg2630
I0
ss(g47
g4
g76
g69
tp3889
(dp3890
g2626
I0
sg2627
I0
sg2628
I0
sg2629
I0
sg2630
I0
ss(g16
g11
g5
g102
tp3891
(dp3892
g2626
I0
sg2627
I0
sg2628
I0
sg2629
I0
sg2630
I0
ss(g3
g11
g12
g6
tp3893
(dp3894
g2626
I0
sg2627
I0
sg2628
I0
sg2629
I0
sg2630
I0
ss(g16
g11
g42
g29
tp3895
(dp3896
g2626
I0
sg2627
I0
sg2628
I0
sg2629
I0
sg2630
I0
ss(g10
g4
g76
g29
tp3897
(dp3898
g2626
I0
sg2627
I0
sg2628
I0
sg2629
I0
sg2630
I0
ss(g10
g4
g5
g48
tp3899
(dp3900
g2626
I0
sg2627
I0
sg2628
I0
sg2629
I0
sg2630
I0
ss(g3
g17
g21
g82
tp3901
(dp3902
g2626
I0
sg2627
I0
sg2628
I0
sg2629
I0
sg2630
I0
ss(g47
g11
g42
g22
tp3903
(dp3904
g2626
I0
sg2627
I0
sg2628
I0
sg2629
I0
sg2630
I0
ss(g3
g11
g76
g102
tp3905
(dp3906
g2626
I0
sg2627
I0
sg2628
I0
sg2629
I0
sg2630
I0
ss(g3
g4
g5
g33
tp3907
(dp3908
g2626
I0
sg2627
I0
sg2628
I0
sg2629
I0
sg2630
I0
ss(g16
g17
g76
g37
tp3909
(dp3910
g2626
I0
sg2627
F13.942830816573766
sg2628
I0
sg2629
F2.035799911799977
sg2630
I0
ss(g10
g4
g76
g22
tp3911
(dp3912
g2626
I0
sg2627
I0
sg2628
I0
sg2629
I0
sg2630
I0
ss(g16
g11
g12
g43
tp3913
(dp3914
g2626
I0
sg2627
I0
sg2628
I0
sg2629
I0
sg2630
I0
ss(g47
g11
g28
g54
tp3915
(dp3916
g2626
I0
sg2627
I0
sg2628
I0
sg2629
I0
sg2630
I0
ss(g16
g4
g12
g43
tp3917
(dp3918
g2626
I0
sg2627
I0
sg2628
I0
sg2629
I0
sg2630
I0
ss(g10
g11
g5
g25
tp3919
(dp3920
g2626
I0
sg2627
I0
sg2628
I0
sg2629
I0
sg2630
I0
ss(g10
g11
g21
g54
tp3921
(dp3922
g2626
I0
sg2627
I0
sg2628
I0
sg2629
I0
sg2630
I0
ss(g47
g11
g12
g29
tp3923
(dp3924
g2626
I0
sg2627
I0
sg2628
I0
sg2629
I0
sg2630
I0
ss(g16
g17
g12
g102
tp3925
(dp3926
g2626
I0
sg2627
I0
sg2628
I0
sg2629
I0
sg2630
I0
ss(g3
g4
g42
g29
tp3927
(dp3928
g2626
I0
sg2627
I0
sg2628
I0
sg2629
I0
sg2630
I0
ss(g3
g17
g28
g33
tp3929
(dp3930
g2626
I0
sg2627
I0
sg2628
I0
sg2629
I0
sg2630
I0
ss(g10
g17
g21
g22
tp3931
(dp3932
g2626
I0
sg2627
I0
sg2628
I0
sg2629
I0
sg2630
I0
ss(g3
g11
g5
g22
tp3933
(dp3934
g2626
I0
sg2627
I0
sg2628
I0
sg2629
I0
sg2630
I0
ss(g47
g17
g76
g43
tp3935
(dp3936
g2626
I0
sg2627
I0
sg2628
I0
sg2629
I0
sg2630
I0
ss(g16
g17
g42
g29
tp3937
(dp3938
g2626
I0
sg2627
I0
sg2628
I0
sg2629
I0
sg2630
I0
ss(g3
g4
g28
g29
tp3939
(dp3940
g2626
I0
sg2627
I0
sg2628
I0
sg2629
I0
sg2630
I0
ss(g10
g4
g9
g37
tp3941
(dp3942
g2626
F3.5399999999999916
sg2627
F11.803196161499997
sg2628
F4.802774054877332
sg2629
F4.725600314999999
sg2630
F6.793303460256802
ss(g3
g11
g76
g48
tp3943
(dp3944
g2626
I0
sg2627
I0
sg2628
I0
sg2629
I0
sg2630
I0
ss(g16
g17
g21
g69
tp3945
(dp3946
g2626
I0
sg2627
I0
sg2628
I0
sg2629
I0
sg2630
I0
ss(g10
g11
g12
g22
tp3947
(dp3948
g2626
I0
sg2627
I0
sg2628
I0
sg2629
I0
sg2630
I0
ss(g47
g17
g42
g6
tp3949
(dp3950
g2626
I0
sg2627
I0
sg2628
I0
sg2629
I0
sg2630
I0
ss(g10
g4
g21
g69
tp3951
(dp3952
g2626
I0
sg2627
I0
sg2628
I0
sg2629
I0
sg2630
I0
ss(g47
g4
g5
g69
tp3953
(dp3954
g2626
I0
sg2627
I0
sg2628
I0
sg2629
I0
sg2630
I0
ss(g10
g11
g28
g43
tp3955
(dp3956
g2626
I0
sg2627
I0
sg2628
I0
sg2629
I0
sg2630
I0
ss(g16
g11
g42
g48
tp3957
(dp3958
g2626
I0
sg2627
I0
sg2628
I0
sg2629
I0
sg2630
I0
ss(g3
g11
g42
g69
tp3959
(dp3960
g2626
I0
sg2627
I0
sg2628
I0
sg2629
I0
sg2630
I0
ss(g16
g11
g21
g22
tp3961
(dp3962
g2626
I0
sg2627
I0
sg2628
I0
sg2629
I0
sg2630
I0
ss(g47
g11
g28
g29
tp3963
(dp3964
g2626
I0
sg2627
I0
sg2628
I0
sg2629
I0
sg2630
I0
ss(g16
g4
g76
g33
tp3965
(dp3966
g2626
I0
sg2627
I0
sg2628
I0
sg2629
I0
sg2630
I0
ss(g16
g17
g28
g43
tp3967
(dp3968
g2626
I0
sg2627
I0
sg2628
I0
sg2629
I0
sg2630
I0
ss(g47
g17
g5
g37
tp3969
(dp3970
g2626
I0
sg2627
I0
sg2628
I0
sg2629
I0
sg2630
I0
ss(g3
g4
g21
g102
tp3971
(dp3972
g2626
I0
sg2627
I0
sg2628
I0
sg2629
I0
sg2630
I0
ss(g47
g11
g5
g37
tp3973
(dp3974
g2626
F58.88160764999995
sg2627
F60.66600314999996
sg2628
I0
sg2629
F105.82245421161913
sg2630
I0
ss(g47
g4
g76
g54
tp3975
(dp3976
g2626
I0
sg2627
I0
sg2628
I0
sg2629
I0
sg2630
I0
ss(g47
g4
g21
g82
tp3977
(dp3978
g2626
I0
sg2627
I0
sg2628
I0
sg2629
I0
sg2630
I0
ss(g10
g4
g9
g54
tp3979
(dp3980
g2626
I0
sg2627
I0
sg2628
I0
sg2629
I0
sg2630
I0
ss(g47
g11
g12
g33
tp3981
(dp3982
g2626
I0
sg2627
I0
sg2628
I0
sg2629
I0
sg2630
I0
ss(g10
g11
g42
g82
tp3983
(dp3984
g2626
I0
sg2627
I0
sg2628
I0
sg2629
I0
sg2630
I0
ss(g47
g17
g9
g69
tp3985
(dp3986
g2626
I0
sg2627
I0
sg2628
I0
sg2629
I0
sg2630
I0
ss(g16
g11
g9
g33
tp3987
(dp3988
g2626
I0
sg2627
I0
sg2628
I0
sg2629
I0
sg2630
I0
ss(g16
g17
g12
g37
tp3989
(dp3990
g2626
F-11.78999955
sg2627
F-6.097200125999998
sg2628
F-11.548800000000004
sg2629
F-15.923996849999996
sg2630
F-13.321200000000005
ss(g3
g4
g21
g29
tp3991
(dp3992
g2626
I0
sg2627
I0
sg2628
I0
sg2629
I0
sg2630
I0
ss(g3
g11
g9
g29
tp3993
(dp3994
g2626
I0
sg2627
I0
sg2628
I0
sg2629
I0
sg2630
I0
ss(g10
g11
g5
g69
tp3995
(dp3996
g2626
I0
sg2627
I0
sg2628
I0
sg2629
I0
sg2630
I0
ss(g16
g11
g5
g82
tp3997
(dp3998
g2626
I0
sg2627
I0
sg2628
I0
sg2629
I0
sg2630
I0
ss(g3
g17
g76
g54
tp3999
(dp4000
g2626
I0
sg2627
I0
sg2628
I0
sg2629
I0
sg2630
I0
ss(g3
g17
g28
g37
tp4001
(dp4002
g2626
I0
sg2627
I0
sg2628
I0
sg2629
I0
sg2630
I0
ss(g3
g11
g28
g43
tp4003
(dp4004
g2626
I0
sg2627
I0
sg2628
I0
sg2629
I0
sg2630
I0
ss(g10
g17
g12
g82
tp4005
(dp4006
g2626
I0
sg2627
I0
sg2628
I0
sg2629
I0
sg2630
I0
ss(g16
g11
g28
g37
tp4007
(dp4008
g2626
I0
sg2627
I0
sg2628
I0
sg2629
I0
sg2630
F28.636320567000013
ss(g3
g4
g42
g25
tp4009
(dp4010
g2626
I0
sg2627
I0
sg2628
I0
sg2629
I0
sg2630
I0
ss(g3
g11
g76
g29
tp4011
(dp4012
g2626
I0
sg2627
I0
sg2628
I0
sg2629
I0
sg2630
I0
ss(g47
g17
g5
g54
tp4013
(dp4014
g2626
I0
sg2627
I0
sg2628
I0
sg2629
I0
sg2630
I0
ss(g47
g11
g21
g37
tp4015
(dp4016
g2626
F-0.08469665694442274
sg2627
F-2.902133460877529
sg2628
F-2.9584761383969997
sg2629
F-2.9788673555853227
sg2630
F0.9609802537274368
ss(g10
g4
g28
g48
tp4017
(dp4018
g2626
I0
sg2627
I0
sg2628
I0
sg2629
I0
sg2630
I0
ss(g10
g4
g42
g25
tp4019
(dp4020
g2626
I0
sg2627
I0
sg2628
I0
sg2629
I0
sg2630
I0
ss(g16
g11
g42
g33
tp4021
(dp4022
g2626
I0
sg2627
I0
sg2628
I0
sg2629
I0
sg2630
I0
ss(g10
g4
g9
g33
tp4023
(dp4024
g2626
I0
sg2627
I0
sg2628
I0
sg2629
I0
sg2630
I0
ss(g3
g17
g21
g29
tp4025
(dp4026
g2626
I0
sg2627
I0
sg2628
I0
sg2629
I0
sg2630
I0
ss(g16
g4
g42
g29
tp4027
(dp4028
g2626
I0
sg2627
I0
sg2628
I0
sg2629
I0
sg2630
I0
ss(g3
g4
g5
g25
tp4029
(dp4030
g2626
I0
sg2627
I0
sg2628
I0
sg2629
I0
sg2630
I0
ss(g16
g4
g28
g102
tp4031
(dp4032
g2626
I0
sg2627
I0
sg2628
I0
sg2629
I0
sg2630
I0
ss(g10
g17
g12
g6
tp4033
(dp4034
g2626
I0
sg2627
I0
sg2628
I0
sg2629
I0
sg2630
I0
ss(g16
g17
g5
g69
tp4035
(dp4036
g2626
I0
sg2627
I0
sg2628
I0
sg2629
I0
sg2630
I0
ss(g16
g11
g5
g6
tp4037
(dp4038
g2626
I0
sg2627
I0
sg2628
I0
sg2629
I0
sg2630
I0
ss(g16
g17
g12
g54
tp4039
(dp4040
g2626
I0
sg2627
I0
sg2628
I0
sg2629
I0
sg2630
I0
ss(g16
g11
g28
g48
tp4041
(dp4042
g2626
I0
sg2627
I0
sg2628
I0
sg2629
I0
sg2630
I0
ss(g16
g11
g9
g29
tp4043
(dp4044
g2626
I0
sg2627
I0
sg2628
I0
sg2629
I0
sg2630
I0
ss(g16
g11
g5
g25
tp4045
(dp4046
g2626
I0
sg2627
I0
sg2628
I0
sg2629
I0
sg2630
I0
ss(g16
g17
g12
g25
tp4047
(dp4048
g2626
I0
sg2627
I0
sg2628
I0
sg2629
I0
sg2630
I0
ss(g3
g4
g28
g33
tp4049
(dp4050
g2626
I0
sg2627
I0
sg2628
I0
sg2629
I0
sg2630
I0
ss(g3
g11
g5
g48
tp4051
(dp4052
g2626
I0
sg2627
I0
sg2628
I0
sg2629
I0
sg2630
I0
ss(g10
g4
g21
g33
tp4053
(dp4054
g2626
I0
sg2627
I0
sg2628
I0
sg2629
I0
sg2630
I0
ss(g47
g4
g42
g54
tp4055
(dp4056
g2626
I0
sg2627
I0
sg2628
I0
sg2629
I0
sg2630
I0
ss(g16
g11
g12
g69
tp4057
(dp4058
g2626
I0
sg2627
I0
sg2628
I0
sg2629
I0
sg2630
I0
ss(g3
g11
g9
g37
tp4059
(dp4060
g2626
I0
sg2627
I0
sg2628
I0
sg2629
I0
sg2630
I0
ss(g16
g11
g12
g29
tp4061
(dp4062
g2626
I0
sg2627
I0
sg2628
I0
sg2629
I0
sg2630
I0
ss(g3
g11
g12
g69
tp4063
(dp4064
g2626
I0
sg2627
I0
sg2628
I0
sg2629
I0
sg2630
I0
ss(g16
g4
g76
g6
tp4065
(dp4066
g2626
I0
sg2627
I0
sg2628
I0
sg2629
I0
sg2630
I0
ss(g3
g11
g42
g48
tp4067
(dp4068
g2626
I0
sg2627
I0
sg2628
I0
sg2629
I0
sg2630
I0
ss(g16
g4
g5
g29
tp4069
(dp4070
g2626
I0
sg2627
I0
sg2628
I0
sg2629
I0
sg2630
I0
ss(g16
g4
g9
g102
tp4071
(dp4072
g2626
I0
sg2627
I0
sg2628
I0
sg2629
I0
sg2630
I0
ss(g3
g4
g21
g48
tp4073
(dp4074
g2626
I0
sg2627
I0
sg2628
I0
sg2629
I0
sg2630
I0
ss(g16
g11
g76
g48
tp4075
(dp4076
g2626
I0
sg2627
I0
sg2628
I0
sg2629
I0
sg2630
I0
ss(g47
g11
g5
g6
tp4077
(dp4078
g2626
I0
sg2627
I0
sg2628
I0
sg2629
I0
sg2630
I0
ss(g10
g11
g42
g6
tp4079
(dp4080
g2626
I0
sg2627
I0
sg2628
I0
sg2629
I0
sg2630
I0
ss(g16
g17
g42
g33
tp4081
(dp4082
g2626
I0
sg2627
I0
sg2628
I0
sg2629
I0
sg2630
I0
ss(g47
g11
g42
g102
tp4083
(dp4084
g2626
I0
sg2627
I0
sg2628
I0
sg2629
I0
sg2630
I0
ss(g47
g17
g9
g33
tp4085
(dp4086
g2626
I0
sg2627
I0
sg2628
I0
sg2629
I0
sg2630
I0
ss(g10
g17
g28
g29
tp4087
(dp4088
g2626
I0
sg2627
I0
sg2628
I0
sg2629
I0
sg2630
I0
ss(g10
g4
g5
g54
tp4089
(dp4090
g2626
I0
sg2627
I0
sg2628
I0
sg2629
I0
sg2630
I0
ss(g3
g11
g12
g25
tp4091
(dp4092
g2626
I0
sg2627
I0
sg2628
I0
sg2629
I0
sg2630
I0
ss(g47
g17
g12
g22
tp4093
(dp4094
g2626
I0
sg2627
I0
sg2628
I0
sg2629
I0
sg2630
I0
ss(g47
g11
g9
g43
tp4095
(dp4096
g2626
I0
sg2627
I0
sg2628
I0
sg2629
I0
sg2630
I0
ss(g3
g11
g9
g25
tp4097
(dp4098
g2626
I0
sg2627
I0
sg2628
I0
sg2629
I0
sg2630
I0
ss(g10
g4
g42
g48
tp4099
(dp4100
g2626
I0
sg2627
I0
sg2628
I0
sg2629
I0
sg2630
I0
ss(g47
g17
g28
g29
tp4101
(dp4102
g2626
I0
sg2627
I0
sg2628
I0
sg2629
I0
sg2630
I0
ss(g3
g4
g9
g54
tp4103
(dp4104
g2626
I0
sg2627
I0
sg2628
I0
sg2629
I0
sg2630
I0
ss(g3
g11
g42
g33
tp4105
(dp4106
g2626
I0
sg2627
I0
sg2628
I0
sg2629
I0
sg2630
I0
ss(g3
g11
g9
g6
tp4107
(dp4108
g2626
I0
sg2627
I0
sg2628
I0
sg2629
I0
sg2630
I0
ss(g47
g11
g42
g43
tp4109
(dp4110
g2626
I0
sg2627
I0
sg2628
I0
sg2629
I0
sg2630
I0
ss(g3
g17
g9
g69
tp4111
(dp4112
g2626
I0
sg2627
I0
sg2628
I0
sg2629
I0
sg2630
I0
ss(g47
g17
g42
g102
tp4113
(dp4114
g2626
I0
sg2627
I0
sg2628
I0
sg2629
I0
sg2630
I0
ss(g10
g17
g9
g33
tp4115
(dp4116
g2626
I0
sg2627
I0
sg2628
I0
sg2629
I0
sg2630
I0
ss(g10
g17
g76
g82
tp4117
(dp4118
g2626
I0
sg2627
I0
sg2628
I0
sg2629
I0
sg2630
I0
ss(g47
g17
g28
g43
tp4119
(dp4120
g2626
I0
sg2627
I0
sg2628
I0
sg2629
I0
sg2630
I0
ss(g3
g17
g9
g48
tp4121
(dp4122
g2626
I0
sg2627
I0
sg2628
I0
sg2629
I0
sg2630
I0
ss(g10
g11
g12
g37
tp4123
(dp4124
g2626
F0.48107993530087256
sg2627
F6.599499059943632
sg2628
F15.392306701107415
sg2629
F9.089289984956872
sg2630
F2.2516679403831867
ss(g3
g4
g42
g22
tp4125
(dp4126
g2626
I0
sg2627
I0
sg2628
I0
sg2629
I0
sg2630
I0
ss(g47
g4
g12
g25
tp4127
(dp4128
g2626
I0
sg2627
I0
sg2628
I0
sg2629
I0
sg2630
I0
ss(g47
g17
g21
g25
tp4129
(dp4130
g2626
I0
sg2627
I0
sg2628
I0
sg2629
I0
sg2630
I0
ss(g47
g17
g28
g22
tp4131
(dp4132
g2626
I0
sg2627
I0
sg2628
I0
sg2629
I0
sg2630
I0
ss(g10
g11
g12
g43
tp4133
(dp4134
g2626
I0
sg2627
I0
sg2628
I0
sg2629
I0
sg2630
I0
ss(g47
g4
g21
g54
tp4135
(dp4136
g2626
I0
sg2627
I0
sg2628
I0
sg2629
I0
sg2630
I0
ss(g10
g4
g12
g43
tp4137
(dp4138
g2626
I0
sg2627
I0
sg2628
I0
sg2629
I0
sg2630
I0
ss(g47
g11
g21
g82
tp4139
(dp4140
g2626
I0
sg2627
I0
sg2628
I0
sg2629
I0
sg2630
I0
ss(g10
g17
g42
g69
tp4141
(dp4142
g2626
I0
sg2627
I0
sg2628
I0
sg2629
I0
sg2630
I0
ss(g47
g17
g21
g6
tp4143
(dp4144
g2626
I0
sg2627
I0
sg2628
I0
sg2629
I0
sg2630
I0
ss(g3
g11
g21
g54
tp4145
(dp4146
g2626
I0
sg2627
I0
sg2628
I0
sg2629
I0
sg2630
I0
ss(g3
g4
g9
g102
tp4147
(dp4148
g2626
I0
sg2627
I0
sg2628
I0
sg2629
I0
sg2630
I0
ss(g16
g17
g21
g102
tp4149
(dp4150
g2626
I0
sg2627
I0
sg2628
I0
sg2629
I0
sg2630
I0
ss(g10
g17
g28
g48
tp4151
(dp4152
g2626
I0
sg2627
I0
sg2628
I0
sg2629
I0
sg2630
I0
ss(g10
g11
g9
g43
tp4153
(dp4154
g2626
I0
sg2627
I0
sg2628
I0
sg2629
I0
sg2630
I0
ss(g16
g17
g9
g33
tp4155
(dp4156
g2626
I0
sg2627
I0
sg2628
I0
sg2629
I0
sg2630
I0
ss(g47
g11
g28
g69
tp4157
(dp4158
g2626
I0
sg2627
I0
sg2628
I0
sg2629
I0
sg2630
I0
ss(g3
g17
g76
g29
tp4159
(dp4160
g2626
I0
sg2627
I0
sg2628
I0
sg2629
I0
sg2630
I0
ss(g16
g4
g21
g25
tp4161
(dp4162
g2626
I0
sg2627
I0
sg2628
I0
sg2629
I0
sg2630
I0
ss(g10
g17
g5
g29
tp4163
(dp4164
g2626
I0
sg2627
I0
sg2628
I0
sg2629
I0
sg2630
I0
ss(g10
g11
g12
g54
tp4165
(dp4166
g2626
I0
sg2627
I0
sg2628
I0
sg2629
I0
sg2630
I0
ss(g10
g17
g12
g102
tp4167
(dp4168
g2626
I0
sg2627
I0
sg2628
I0
sg2629
I0
sg2630
I0
ss(g3
g17
g42
g102
tp4169
(dp4170
g2626
I0
sg2627
I0
sg2628
I0
sg2629
I0
sg2630
I0
ss(g3
g4
g9
g29
tp4171
(dp4172
g2626
I0
sg2627
I0
sg2628
I0
sg2629
I0
sg2630
I0
ss(g16
g11
g21
g25
tp4173
(dp4174
g2626
I0
sg2627
I0
sg2628
I0
sg2629
I0
sg2630
I0
ss(g16
g17
g76
g82
tp4175
(dp4176
g2626
I0
sg2627
I0
sg2628
I0
sg2629
I0
sg2630
I0
ss(g10
g17
g28
g82
tp4177
(dp4178
g2626
I0
sg2627
I0
sg2628
I0
sg2629
I0
sg2630
I0
ss(g16
g17
g9
g25
tp4179
(dp4180
g2626
I0
sg2627
I0
sg2628
I0
sg2629
I0
sg2630
I0
ss(g3
g17
g21
g25
tp4181
(dp4182
g2626
I0
sg2627
I0
sg2628
I0
sg2629
I0
sg2630
I0
ss(g16
g11
g42
g82
tp4183
(dp4184
g2626
I0
sg2627
I0
sg2628
I0
sg2629
I0
sg2630
I0
ss(g16
g4
g76
g102
tp4185
(dp4186
g2626
I0
sg2627
I0
sg2628
I0
sg2629
I0
sg2630
I0
ss(g47
g4
g42
g82
tp4187
(dp4188
g2626
I0
sg2627
I0
sg2628
I0
sg2629
I0
sg2630
I0
ss(g16
g17
g9
g54
tp4189
(dp4190
g2626
I0
sg2627
I0
sg2628
I0
sg2629
I0
sg2630
I0
ss(g3
g4
g42
g69
tp4191
(dp4192
g2626
I0
sg2627
I0
sg2628
I0
sg2629
I0
sg2630
I0
ss(g16
g4
g12
g82
tp4193
(dp4194
g2626
I0
sg2627
I0
sg2628
I0
sg2629
I0
sg2630
I0
ss(g47
g11
g28
g22
tp4195
(dp4196
g2626
I0
sg2627
I0
sg2628
I0
sg2629
I0
sg2630
I0
ss(g16
g4
g42
g54
tp4197
(dp4198
g2626
I0
sg2627
I0
sg2628
I0
sg2629
I0
sg2630
I0
ss(g47
g17
g42
g43
tp4199
(dp4200
g2626
I0
sg2627
I0
sg2628
I0
sg2629
I0
sg2630
I0
ss(g3
g11
g5
g43
tp4201
(dp4202
g2626
I0
sg2627
I0
sg2628
I0
sg2629
I0
sg2630
I0
ss(g47
g11
g42
g25
tp4203
(dp4204
g2626
I0
sg2627
I0
sg2628
I0
sg2629
I0
sg2630
I0
ss(g47
g4
g21
g37
tp4205
(dp4206
g2626
I0
sg2627
I0
sg2628
I0
sg2629
F-0.8999999999999999
sg2630
F6.669240932399999
ss(g10
g4
g21
g6
tp4207
(dp4208
g2626
I0
sg2627
I0
sg2628
I0
sg2629
I0
sg2630
I0
ss(g3
g11
g5
g25
tp4209
(dp4210
g2626
I0
sg2627
I0
sg2628
I0
sg2629
I0
sg2630
I0
ss(g3
g17
g5
g69
tp4211
(dp4212
g2626
I0
sg2627
I0
sg2628
I0
sg2629
I0
sg2630
I0
ss(g47
g17
g12
g69
tp4213
(dp4214
g2626
I0
sg2627
I0
sg2628
I0
sg2629
I0
sg2630
I0
ss(g3
g17
g42
g43
tp4215
(dp4216
g2626
I0
sg2627
I0
sg2628
I0
sg2629
I0
sg2630
I0
ss(g10
g11
g28
g102
tp4217
(dp4218
g2626
I0
sg2627
I0
sg2628
I0
sg2629
I0
sg2630
I0
ss(g16
g17
g9
g37
tp4219
(dp4220
g2626
F-8.793109750579507
sg2627
F-2.486997043500012
sg2628
F-5.160000000000008
sg2629
F-9.6
sg2630
F-6.3
ss(g47
g4
g42
g48
tp4221
(dp4222
g2626
I0
sg2627
I0
sg2628
I0
sg2629
I0
sg2630
I0
ss(g3
g11
g12
g54
tp4223
(dp4224
g2626
I0
sg2627
I0
sg2628
I0
sg2629
I0
sg2630
I0
ss(g47
g11
g42
g33
tp4225
(dp4226
g2626
I0
sg2627
I0
sg2628
I0
sg2629
I0
sg2630
I0
ss(g10
g11
g76
g54
tp4227
(dp4228
g2626
I0
sg2627
I0
sg2628
I0
sg2629
I0
sg2630
I0
ss(g47
g4
g76
g29
tp4229
(dp4230
g2626
I0
sg2627
I0
sg2628
I0
sg2629
I0
sg2630
I0
ss(g16
g4
g5
g102
tp4231
(dp4232
g2626
I0
sg2627
I0
sg2628
I0
sg2629
I0
sg2630
I0
ss(g47
g4
g76
g25
tp4233
(dp4234
g2626
I0
sg2627
I0
sg2628
I0
sg2629
I0
sg2630
I0
ss(g47
g17
g28
g54
tp4235
(dp4236
g2626
I0
sg2627
I0
sg2628
I0
sg2629
I0
sg2630
I0
ss(g3
g4
g9
g82
tp4237
(dp4238
g2626
I0
sg2627
I0
sg2628
I0
sg2629
I0
sg2630
I0
ss(g16
g11
g9
g43
tp4239
(dp4240
g2626
I0
sg2627
I0
sg2628
I0
sg2629
I0
sg2630
I0
ss(g47
g11
g12
g69
tp4241
(dp4242
g2626
I0
sg2627
I0
sg2628
I0
sg2629
I0
sg2630
I0
ss(g16
g11
g12
g102
tp4243
(dp4244
g2626
I0
sg2627
I0
sg2628
I0
sg2629
I0
sg2630
I0
ss(g47
g17
g9
g6
tp4245
(dp4246
g2626
I0
sg2627
I0
sg2628
I0
sg2629
I0
sg2630
I0
ss(g3
g11
g9
g102
tp4247
(dp4248
g2626
I0
sg2627
I0
sg2628
I0
sg2629
I0
sg2630
I0
ss(g16
g4
g12
g33
tp4249
(dp4250
g2626
I0
sg2627
I0
sg2628
I0
sg2629
I0
sg2630
I0
ss(g10
g17
g76
g6
tp4251
(dp4252
g2626
I0
sg2627
I0
sg2628
I0
sg2629
I0
sg2630
I0
ss(g10
g17
g76
g69
tp4253
(dp4254
g2626
I0
sg2627
I0
sg2628
I0
sg2629
I0
sg2630
I0
ss(g10
g17
g42
g48
tp4255
(dp4256
g2626
I0
sg2627
I0
sg2628
I0
sg2629
I0
sg2630
I0
ss(g47
g17
g76
g102
tp4257
(dp4258
g2626
I0
sg2627
I0
sg2628
I0
sg2629
I0
sg2630
I0
ss(g10
g17
g21
g29
tp4259
(dp4260
g2626
I0
sg2627
I0
sg2628
I0
sg2629
I0
sg2630
I0
ss(g3
g17
g28
g82
tp4261
(dp4262
g2626
I0
sg2627
I0
sg2628
I0
sg2629
I0
sg2630
I0
ss(g47
g11
g76
g102
tp4263
(dp4264
g2626
I0
sg2627
I0
sg2628
I0
sg2629
I0
sg2630
I0
ss(g10
g11
g42
g48
tp4265
(dp4266
g2626
I0
sg2627
I0
sg2628
I0
sg2629
I0
sg2630
I0
ss(g10
g11
g76
g6
tp4267
(dp4268
g2626
I0
sg2627
I0
sg2628
I0
sg2629
I0
sg2630
I0
ss(g16
g11
g28
g82
tp4269
(dp4270
g2626
I0
sg2627
I0
sg2628
I0
sg2629
I0
sg2630
I0
ss(g3
g11
g5
g33
tp4271
(dp4272
g2626
I0
sg2627
I0
sg2628
I0
sg2629
I0
sg2630
I0
ss(g16
g4
g28
g43
tp4273
(dp4274
g2626
I0
sg2627
I0
sg2628
I0
sg2629
I0
sg2630
I0
ss(g16
g11
g21
g48
tp4275
(dp4276
g2626
I0
sg2627
I0
sg2628
I0
sg2629
I0
sg2630
I0
ss(g47
g4
g21
g29
tp4277
(dp4278
g2626
I0
sg2627
I0
sg2628
I0
sg2629
I0
sg2630
I0
ss(g10
g11
g76
g25
tp4279
(dp4280
g2626
I0
sg2627
I0
sg2628
I0
sg2629
I0
sg2630
I0
ss(g10
g11
g9
g69
tp4281
(dp4282
g2626
I0
sg2627
I0
sg2628
I0
sg2629
I0
sg2630
I0
ss(g3
g17
g21
g48
tp4283
(dp4284
g2626
I0
sg2627
I0
sg2628
I0
sg2629
I0
sg2630
I0
ss(g47
g4
g42
g33
tp4285
(dp4286
g2626
I0
sg2627
I0
sg2628
I0
sg2629
I0
sg2630
I0
ss(g47
g4
g76
g37
tp4287
(dp4288
g2626
F8.669995499999999
sg2627
F11.820000450000004
sg2628
I0
sg2629
F19.30816158710338
sg2630
I0
ss(g47
g11
g28
g82
tp4289
(dp4290
g2626
I0
sg2627
I0
sg2628
I0
sg2629
I0
sg2630
I0
ss(g47
g17
g21
g102
tp4291
(dp4292
g2626
I0
sg2627
I0
sg2628
I0
sg2629
I0
sg2630
I0
ss(g16
g17
g21
g6
tp4293
(dp4294
g2626
I0
sg2627
I0
sg2628
I0
sg2629
I0
sg2630
I0
ss(g16
g11
g5
g43
tp4295
(dp4296
g2626
I0
sg2627
I0
sg2628
I0
sg2629
I0
sg2630
I0
ss(g16
g4
g12
g48
tp4297
(dp4298
g2626
I0
sg2627
I0
sg2628
I0
sg2629
I0
sg2630
I0
ss(g47
g11
g42
g54
tp4299
(dp4300
g2626
I0
sg2627
I0
sg2628
I0
sg2629
I0
sg2630
I0
ss(g16
g17
g9
g69
tp4301
(dp4302
g2626
I0
sg2627
I0
sg2628
I0
sg2629
I0
sg2630
I0
ss(g3
g11
g76
g6
tp4303
(dp4304
g2626
I0
sg2627
I0
sg2628
I0
sg2629
I0
sg2630
I0
ss(g3
g4
g28
g37
tp4305
(dp4306
g2626
I0
sg2627
I0
sg2628
I0
sg2629
I0
sg2630
I0
ss(g10
g11
g21
g6
tp4307
(dp4308
g2626
I0
sg2627
I0
sg2628
I0
sg2629
I0
sg2630
I0
ss(g3
g4
g12
g6
tp4309
(dp4310
g2626
I0
sg2627
I0
sg2628
I0
sg2629
I0
sg2630
I0
ss(g47
g11
g76
g33
tp4311
(dp4312
g2626
I0
sg2627
I0
sg2628
I0
sg2629
I0
sg2630
I0
ss(g16
g11
g42
g54
tp4313
(dp4314
g2626
I0
sg2627
I0
sg2628
I0
sg2629
I0
sg2630
I0
ss(g3
g4
g28
g48
tp4315
(dp4316
g2626
I0
sg2627
I0
sg2628
I0
sg2629
I0
sg2630
I0
ss(g16
g4
g76
g69
tp4317
(dp4318
g2626
I0
sg2627
I0
sg2628
I0
sg2629
I0
sg2630
I0
ss(g47
g4
g12
g69
tp4319
(dp4320
g2626
I0
sg2627
I0
sg2628
I0
sg2629
I0
sg2630
I0
ss(g47
g17
g12
g33
tp4321
(dp4322
g2626
I0
sg2627
I0
sg2628
I0
sg2629
I0
sg2630
I0
ss(g3
g11
g28
g22
tp4323
(dp4324
g2626
I0
sg2627
I0
sg2628
I0
sg2629
I0
sg2630
I0
ss(g3
g11
g76
g82
tp4325
(dp4326
g2626
I0
sg2627
I0
sg2628
I0
sg2629
I0
sg2630
I0
ss(g47
g4
g12
g6
tp4327
(dp4328
g2626
I0
sg2627
I0
sg2628
I0
sg2629
I0
sg2630
I0
ss(g47
g11
g5
g29
tp4329
(dp4330
g2626
I0
sg2627
I0
sg2628
I0
sg2629
I0
sg2630
I0
ss(g16
g17
g5
g102
tp4331
(dp4332
g2626
I0
sg2627
I0
sg2628
I0
sg2629
I0
sg2630
I0
ss(g10
g11
g9
g22
tp4333
(dp4334
g2626
I0
sg2627
I0
sg2628
I0
sg2629
I0
sg2630
I0
ss(g3
g11
g76
g22
tp4335
(dp4336
g2626
I0
sg2627
I0
sg2628
I0
sg2629
I0
sg2630
I0
ss(g3
g17
g9
g82
tp4337
(dp4338
g2626
I0
sg2627
I0
sg2628
I0
sg2629
I0
sg2630
I0
ss(g3
g4
g9
g48
tp4339
(dp4340
g2626
I0
sg2627
I0
sg2628
I0
sg2629
I0
sg2630
I0
ss(g47
g4
g12
g54
tp4341
(dp4342
g2626
I0
sg2627
I0
sg2628
I0
sg2629
I0
sg2630
I0
ss(g47
g11
g9
g33
tp4343
(dp4344
g2626
I0
sg2627
I0
sg2628
I0
sg2629
I0
sg2630
I0
ss(g16
g11
g9
g82
tp4345
(dp4346
g2626
I0
sg2627
I0
sg2628
I0
sg2629
I0
sg2630
I0
ss(g10
g17
g42
g33
tp4347
(dp4348
g2626
I0
sg2627
I0
sg2628
I0
sg2629
I0
sg2630
I0
ss(g10
g17
g21
g33
tp4349
(dp4350
g2626
I0
sg2627
I0
sg2628
I0
sg2629
I0
sg2630
I0
ss(g10
g11
g42
g37
tp4351
(dp4352
g2626
F32.01000450000001
sg2627
F19.427994104999986
sg2628
I0
sg2629
F77.74407495526124
sg2630
F20.669996849999997
ss(g10
g11
g42
g29
tp4353
(dp4354
g2626
I0
sg2627
I0
sg2628
I0
sg2629
I0
sg2630
I0
ss(g10
g17
g28
g22
tp4355
(dp4356
g2626
I0
sg2627
I0
sg2628
I0
sg2629
I0
sg2630
I0
ss(g10
g4
g9
g29
tp4357
(dp4358
g2626
I0
sg2627
I0
sg2628
I0
sg2629
I0
sg2630
I0
ss(g16
g4
g9
g43
tp4359
(dp4360
g2626
I0
sg2627
I0
sg2628
I0
sg2629
I0
sg2630
I0
ss(g3
g17
g76
g22
tp4361
(dp4362
g2626
I0
sg2627
I0
sg2628
I0
sg2629
I0
sg2630
I0
ss(g16
g17
g42
g82
tp4363
(dp4364
g2626
I0
sg2627
I0
sg2628
I0
sg2629
I0
sg2630
I0
ss(g3
g11
g42
g22
tp4365
(dp4366
g2626
I0
sg2627
I0
sg2628
I0
sg2629
I0
sg2630
I0
ss(g3
g4
g28
g25
tp4367
(dp4368
g2626
I0
sg2627
I0
sg2628
I0
sg2629
I0
sg2630
I0
ss(g16
g4
g42
g43
tp4369
(dp4370
g2626
I0
sg2627
I0
sg2628
I0
sg2629
I0
sg2630
I0
ss(g16
g17
g12
g48
tp4371
(dp4372
g2626
I0
sg2627
I0
sg2628
I0
sg2629
I0
sg2630
I0
ss(g3
g17
g42
g6
tp4373
(dp4374
g2626
I0
sg2627
I0
sg2628
I0
sg2629
I0
sg2630
I0
ss(g10
g11
g76
g48
tp4375
(dp4376
g2626
I0
sg2627
I0
sg2628
I0
sg2629
I0
sg2630
I0
ss(g3
g4
g21
g33
tp4377
(dp4378
g2626
I0
sg2627
I0
sg2628
I0
sg2629
I0
sg2630
I0
ss(g3
g11
g21
g22
tp4379
(dp4380
g2626
I0
sg2627
I0
sg2628
I0
sg2629
I0
sg2630
I0
ss(g16
g17
g12
g69
tp4381
(dp4382
g2626
I0
sg2627
I0
sg2628
I0
sg2629
I0
sg2630
I0
ss(g10
g4
g28
g82
tp4383
(dp4384
g2626
I0
sg2627
I0
sg2628
I0
sg2629
I0
sg2630
I0
ss(g10
g4
g12
g6
tp4385
(dp4386
g2626
I0
sg2627
I0
sg2628
I0
sg2629
I0
sg2630
I0
ss(g47
g17
g21
g29
tp4387
(dp4388
g2626
I0
sg2627
I0
sg2628
I0
sg2629
I0
sg2630
I0
ss(g10
g11
g76
g43
tp4389
(dp4390
g2626
I0
sg2627
I0
sg2628
I0
sg2629
I0
sg2630
I0
ss(g16
g11
g12
g25
tp4391
(dp4392
g2626
I0
sg2627
I0
sg2628
I0
sg2629
I0
sg2630
I0
ss(g16
g4
g28
g25
tp4393
(dp4394
g2626
I0
sg2627
I0
sg2628
I0
sg2629
I0
sg2630
I0
ss(g16
g4
g42
g25
tp4395
(dp4396
g2626
I0
sg2627
I0
sg2628
I0
sg2629
I0
sg2630
I0
ss(g47
g4
g76
g48
tp4397
(dp4398
g2626
I0
sg2627
I0
sg2628
I0
sg2629
I0
sg2630
I0
ss(g3
g17
g21
g69
tp4399
(dp4400
g2626
I0
sg2627
I0
sg2628
I0
sg2629
I0
sg2630
I0
ss(g3
g17
g5
g102
tp4401
(dp4402
g2626
I0
sg2627
I0
sg2628
I0
sg2629
I0
sg2630
I0
ss(g3
g17
g9
g54
tp4403
(dp4404
g2626
I0
sg2627
I0
sg2628
I0
sg2629
I0
sg2630
I0
ss(g16
g11
g5
g29
tp4405
(dp4406
g2626
I0
sg2627
I0
sg2628
I0
sg2629
I0
sg2630
I0
ss(g3
g17
g42
g69
tp4407
(dp4408
g2626
I0
sg2627
I0
sg2628
I0
sg2629
I0
sg2630
I0
ss(g3
g11
g76
g33
tp4409
(dp4410
g2626
I0
sg2627
I0
sg2628
I0
sg2629
I0
sg2630
I0
ss(g47
g4
g5
g6
tp4411
(dp4412
g2626
I0
sg2627
I0
sg2628
I0
sg2629
I0
sg2630
I0
ss(g3
g4
g5
g48
tp4413
(dp4414
g2626
I0
sg2627
I0
sg2628
I0
sg2629
I0
sg2630
I0
ss(g16
g11
g9
g22
tp4415
(dp4416
g2626
I0
sg2627
I0
sg2628
I0
sg2629
I0
sg2630
I0
ss(g3
g4
g12
g102
tp4417
(dp4418
g2626
I0
sg2627
I0
sg2628
I0
sg2629
I0
sg2630
I0
ss(g3
g17
g9
g22
tp4419
(dp4420
g2626
I0
sg2627
I0
sg2628
I0
sg2629
I0
sg2630
I0
ss(g16
g17
g5
g54
tp4421
(dp4422
g2626
I0
sg2627
I0
sg2628
I0
sg2629
I0
sg2630
I0
ss(g3
g11
g42
g6
tp4423
(dp4424
g2626
I0
sg2627
I0
sg2628
I0
sg2629
I0
sg2630
I0
ss(g47
g4
g76
g43
tp4425
(dp4426
g2626
I0
sg2627
I0
sg2628
I0
sg2629
I0
sg2630
I0
ss(g16
g17
g5
g25
tp4427
(dp4428
g2626
I0
sg2627
I0
sg2628
I0
sg2629
I0
sg2630
I0
ss(g3
g17
g76
g82
tp4429
(dp4430
g2626
I0
sg2627
I0
sg2628
I0
sg2629
I0
sg2630
I0
ss(g16
g4
g28
g54
tp4431
(dp4432
g2626
I0
sg2627
I0
sg2628
I0
sg2629
I0
sg2630
I0
ss(g3
g11
g9
g33
tp4433
(dp4434
g2626
I0
sg2627
I0
sg2628
I0
sg2629
I0
sg2630
I0
ss(g16
g11
g76
g82
tp4435
(dp4436
g2626
I0
sg2627
I0
sg2628
I0
sg2629
I0
sg2630
I0
ss(g47
g4
g9
g102
tp4437
(dp4438
g2626
I0
sg2627
I0
sg2628
I0
sg2629
I0
sg2630
I0
ss(g16
g17
g5
g6
tp4439
(dp4440
g2626
I0
sg2627
I0
sg2628
I0
sg2629
I0
sg2630
I0
ss(g47
g4
g42
g25
tp4441
(dp4442
g2626
I0
sg2627
I0
sg2628
I0
sg2629
I0
sg2630
I0
ss(g47
g11
g12
g82
tp4443
(dp4444
g2626
I0
sg2627
I0
sg2628
I0
sg2629
I0
sg2630
I0
ss(g16
g4
g28
g22
tp4445
(dp4446
g2626
I0
sg2627
I0
sg2628
I0
sg2629
I0
sg2630
I0
ss(g3
g4
g76
g69
tp4447
(dp4448
g2626
I0
sg2627
I0
sg2628
I0
sg2629
I0
sg2630
I0
ss(g10
g4
g28
g102
tp4449
(dp4450
g2626
I0
sg2627
I0
sg2628
I0
sg2629
I0
sg2630
I0
ss(g3
g4
g9
g69
tp4451
(dp4452
g2626
I0
sg2627
I0
sg2628
I0
sg2629
I0
sg2630
I0
ss(g47
g17
g76
g22
tp4453
(dp4454
g2626
I0
sg2627
I0
sg2628
I0
sg2629
I0
sg2630
I0
ss(g10
g11
g28
g22
tp4455
(dp4456
g2626
I0
sg2627
I0
sg2628
I0
sg2629
I0
sg2630
I0
ss(g10
g17
g21
g43
tp4457
(dp4458
g2626
I0
sg2627
I0
sg2628
I0
sg2629
I0
sg2630
I0
ss(g47
g17
g42
g29
tp4459
(dp4460
g2626
I0
sg2627
I0
sg2628
I0
sg2629
I0
sg2630
I0
ss(g47
g17
g42
g25
tp4461
(dp4462
g2626
I0
sg2627
I0
sg2628
I0
sg2629
I0
sg2630
I0
ss(g47
g17
g76
g54
tp4463
(dp4464
g2626
I0
sg2627
I0
sg2628
I0
sg2629
I0
sg2630
I0
ss(g10
g11
g42
g102
tp4465
(dp4466
g2626
I0
sg2627
I0
sg2628
I0
sg2629
I0
sg2630
I0
ss(g47
g17
g9
g54
tp4467
(dp4468
g2626
I0
sg2627
I0
sg2628
I0
sg2629
I0
sg2630
I0
ss(g3
g17
g76
g69
tp4469
(dp4470
g2626
I0
sg2627
I0
sg2628
I0
sg2629
I0
sg2630
I0
ss(g47
g17
g76
g48
tp4471
(dp4472
g2626
I0
sg2627
I0
sg2628
I0
sg2629
I0
sg2630
I0
ss(g16
g4
g42
g33
tp4473
(dp4474
g2626
I0
sg2627
I0
sg2628
I0
sg2629
I0
sg2630
I0
ss(g16
g17
g28
g22
tp4475
(dp4476
g2626
I0
sg2627
I0
sg2628
I0
sg2629
I0
sg2630
I0
ss(g16
g17
g9
g43
tp4477
(dp4478
g2626
I0
sg2627
I0
sg2628
I0
sg2629
I0
sg2630
I0
ss(g3
g17
g5
g54
tp4479
(dp4480
g2626
I0
sg2627
I0
sg2628
I0
sg2629
I0
sg2630
I0
ss(g16
g11
g76
g25
tp4481
(dp4482
g2626
I0
sg2627
I0
sg2628
I0
sg2629
I0
sg2630
I0
ss(g16
g11
g5
g48
tp4483
(dp4484
g2626
I0
sg2627
I0
sg2628
I0
sg2629
I0
sg2630
I0
ss(g16
g4
g76
g29
tp4485
(dp4486
g2626
I0
sg2627
I0
sg2628
I0
sg2629
I0
sg2630
I0
ss(g16
g4
g76
g37
tp4487
(dp4488
g2626
F4.277999054999997
sg2627
I0
sg2628
I0
sg2629
I0
sg2630
I0
ss(g16
g17
g5
g82
tp4489
(dp4490
g2626
I0
sg2627
I0
sg2628
I0
sg2629
I0
sg2630
I0
ss(g3
g11
g21
g69
tp4491
(dp4492
g2626
I0
sg2627
I0
sg2628
I0
sg2629
I0
sg2630
I0
ss(g47
g11
g42
g69
tp4493
(dp4494
g2626
I0
sg2627
I0
sg2628
I0
sg2629
I0
sg2630
I0
ss(g16
g4
g12
g69
tp4495
(dp4496
g2626
I0
sg2627
I0
sg2628
I0
sg2629
I0
sg2630
I0
ss(g16
g11
g21
g54
tp4497
(dp4498
g2626
I0
sg2627
I0
sg2628
I0
sg2629
I0
sg2630
I0
ss(g10
g4
g5
g29
tp4499
(dp4500
g2626
I0
sg2627
I0
sg2628
I0
sg2629
I0
sg2630
I0
ss(g16
g11
g28
g25
tp4501
(dp4502
g2626
I0
sg2627
I0
sg2628
I0
sg2629
I0
sg2630
I0
ss(g3
g4
g5
g29
tp4503
(dp4504
g2626
I0
sg2627
I0
sg2628
I0
sg2629
I0
sg2630
I0
ss(g10
g11
g76
g69
tp4505
(dp4506
g2626
I0
sg2627
I0
sg2628
I0
sg2629
I0
sg2630
I0
ss(g16
g4
g9
g25
tp4507
(dp4508
g2626
I0
sg2627
I0
sg2628
I0
sg2629
I0
sg2630
I0
ss(g47
g4
g5
g37
tp4509
(dp4510
g2626
I0
sg2627
I0
sg2628
I0
sg2629
I0
sg2630
I0
ss(g3
g4
g28
g82
tp4511
(dp4512
g2626
I0
sg2627
I0
sg2628
I0
sg2629
I0
sg2630
I0
ss(g16
g17
g42
g37
tp4513
(dp4514
g2626
F-5.159999999999992
sg2627
I0
sg2628
I0
sg2629
I0
sg2630
I0
ss(g16
g17
g21
g37
tp4515
(dp4516
g2626
F-7.924200125999999
sg2627
F-1.5738060000000038
sg2628
F-2.1000036000000035
sg2629
F-9.6
sg2630
F-9.6
ss(g47
g17
g21
g43
tp4517
(dp4518
g2626
I0
sg2627
I0
sg2628
I0
sg2629
I0
sg2630
I0
ss(g10
g11
g9
g29
tp4519
(dp4520
g2626
I0
sg2627
I0
sg2628
I0
sg2629
I0
sg2630
I0
ss(g47
g17
g28
g37
tp4521
(dp4522
g2626
I0
sg2627
I0
sg2628
I0
sg2629
I0
sg2630
I0
ss(g3
g17
g76
g37
tp4523
(dp4524
g2626
I0
sg2627
I0
sg2628
I0
sg2629
I0
sg2630
I0
ss(g16
g17
g21
g43
tp4525
(dp4526
g2626
I0
sg2627
I0
sg2628
I0
sg2629
I0
sg2630
I0
ss(g16
g11
g21
g33
tp4527
(dp4528
g2626
I0
sg2627
I0
sg2628
I0
sg2629
I0
sg2630
I0
ss(g3
g4
g5
g69
tp4529
(dp4530
g2626
I0
sg2627
I0
sg2628
I0
sg2629
I0
sg2630
I0
ss(g3
g17
g76
g43
tp4531
(dp4532
g2626
I0
sg2627
I0
sg2628
I0
sg2629
I0
sg2630
I0
ss(g3
g4
g12
g37
tp4533
(dp4534
g2626
I0
sg2627
I0
sg2628
I0
sg2629
I0
sg2630
I0
ss(g47
g4
g21
g69
tp4535
(dp4536
g2626
I0
sg2627
I0
sg2628
I0
sg2629
I0
sg2630
I0
ss(g10
g11
g12
g102
tp4537
(dp4538
g2626
I0
sg2627
I0
sg2628
I0
sg2629
I0
sg2630
I0
ss(g3
g17
g5
g6
tp4539
(dp4540
g2626
I0
sg2627
I0
sg2628
I0
sg2629
I0
sg2630
I0
ss(g3
g4
g76
g82
tp4541
(dp4542
g2626
I0
sg2627
I0
sg2628
I0
sg2629
I0
sg2630
I0
ss(g10
g17
g9
g37
tp4543
(dp4544
g2626
F13.576981817381501
sg2627
F-3.8670899999999975
sg2628
I0
sg2629
F-5.484876119613897
sg2630
F2.4599997750000004
ss(g10
g11
g21
g69
tp4545
(dp4546
g2626
I0
sg2627
I0
sg2628
I0
sg2629
I0
sg2630
I0
ss(g3
g17
g5
g48
tp4547
(dp4548
g2626
I0
sg2627
I0
sg2628
I0
sg2629
I0
sg2630
I0
ss(g10
g4
g12
g82
tp4549
(dp4550
g2626
I0
sg2627
I0
sg2628
I0
sg2629
I0
sg2630
I0
ss(g10
g11
g5
g54
tp4551
(dp4552
g2626
I0
sg2627
I0
sg2628
I0
sg2629
I0
sg2630
I0
ss(g47
g11
g28
g6
tp4553
(dp4554
g2626
I0
sg2627
I0
sg2628
I0
sg2629
I0
sg2630
I0
ss(g16
g17
g21
g54
tp4555
(dp4556
g2626
I0
sg2627
I0
sg2628
I0
sg2629
I0
sg2630
I0
ss(g3
g11
g9
g43
tp4557
(dp4558
g2626
I0
sg2627
I0
sg2628
I0
sg2629
I0
sg2630
I0
ss(g10
g17
g21
g82
tp4559
(dp4560
g2626
I0
sg2627
I0
sg2628
I0
sg2629
I0
sg2630
I0
ss(g10
g4
g76
g37
tp4561
(dp4562
g2626
F7.770000000000007
sg2627
I0
sg2628
I0
sg2629
F59.44544635542768
sg2630
F20.09999955
ss(g47
g11
g9
g25
tp4563
(dp4564
g2626
I0
sg2627
I0
sg2628
I0
sg2629
I0
sg2630
I0
ss(g16
g17
g42
g25
tp4565
(dp4566
g2626
I0
sg2627
I0
sg2628
I0
sg2629
I0
sg2630
I0
ss(g10
g11
g76
g22
tp4567
(dp4568
g2626
I0
sg2627
I0
sg2628
I0
sg2629
I0
sg2630
I0
ss(g10
g17
g5
g25
tp4569
(dp4570
g2626
I0
sg2627
I0
sg2628
I0
sg2629
I0
sg2630
I0
ss(g16
g17
g42
g6
tp4571
(dp4572
g2626
I0
sg2627
I0
sg2628
I0
sg2629
I0
sg2630
I0
ss(g47
g17
g12
g102
tp4573
(dp4574
g2626
I0
sg2627
I0
sg2628
I0
sg2629
I0
sg2630
I0
ss(g16
g17
g12
g33
tp4575
(dp4576
g2626
I0
sg2627
I0
sg2628
I0
sg2629
I0
sg2630
I0
ss(g10
g17
g28
g102
tp4577
(dp4578
g2626
I0
sg2627
I0
sg2628
I0
sg2629
I0
sg2630
I0
ss(g10
g4
g28
g69
tp4579
(dp4580
g2626
I0
sg2627
I0
sg2628
I0
sg2629
I0
sg2630
I0
ss(g3
g17
g5
g29
tp4581
(dp4582
g2626
I0
sg2627
I0
sg2628
I0
sg2629
I0
sg2630
I0
ss(g3
g17
g42
g37
tp4583
(dp4584
g2626
I0
sg2627
I0
sg2628
I0
sg2629
I0
sg2630
I0
ss(g10
g17
g12
g22
tp4585
(dp4586
g2626
I0
sg2627
I0
sg2628
I0
sg2629
I0
sg2630
I0
ss(g3
g4
g28
g54
tp4587
(dp4588
g2626
I0
sg2627
I0
sg2628
I0
sg2629
I0
sg2630
I0
ss(g10
g4
g21
g54
tp4589
(dp4590
g2626
I0
sg2627
I0
sg2628
I0
sg2629
I0
sg2630
I0
ss(g47
g17
g5
g25
tp4591
(dp4592
g2626
I0
sg2627
I0
sg2628
I0
sg2629
I0
sg2630
I0
ss(g16
g4
g9
g29
tp4593
(dp4594
g2626
I0
sg2627
I0
sg2628
I0
sg2629
I0
sg2630
I0
ss(g16
g4
g9
g37
tp4595
(dp4596
g2626
I0
sg2627
I0
sg2628
F-0.8999999999999999
sg2629
I0
sg2630
F0.8866807339349911
ss(g16
g17
g9
g22
tp4597
(dp4598
g2626
I0
sg2627
I0
sg2628
I0
sg2629
I0
sg2630
I0
ss(g10
g11
g9
g48
tp4599
(dp4600
g2626
I0
sg2627
I0
sg2628
I0
sg2629
I0
sg2630
I0
ss(g10
g11
g28
g6
tp4601
(dp4602
g2626
I0
sg2627
I0
sg2628
I0
sg2629
I0
sg2630
I0
ss(g3
g17
g42
g54
tp4603
(dp4604
g2626
I0
sg2627
I0
sg2628
I0
sg2629
I0
sg2630
I0
ss(g47
g17
g5
g33
tp4605
(dp4606
g2626
I0
sg2627
I0
sg2628
I0
sg2629
I0
sg2630
I0
ss(g47
g11
g12
g102
tp4607
(dp4608
g2626
I0
sg2627
I0
sg2628
I0
sg2629
I0
sg2630
I0
ss(g3
g11
g12
g29
tp4609
(dp4610
g2626
I0
sg2627
I0
sg2628
I0
sg2629
I0
sg2630
I0
ss(g10
g17
g21
g54
tp4611
(dp4612
g2626
I0
sg2627
I0
sg2628
I0
sg2629
I0
sg2630
I0
ss(g47
g11
g5
g43
tp4613
(dp4614
g2626
I0
sg2627
I0
sg2628
I0
sg2629
I0
sg2630
I0
ss(g47
g11
g5
g82
tp4615
(dp4616
g2626
I0
sg2627
I0
sg2628
I0
sg2629
I0
sg2630
I0
ss(g16
g4
g5
g48
tp4617
(dp4618
g2626
I0
sg2627
I0
sg2628
I0
sg2629
I0
sg2630
I0
ss(g16
g4
g28
g29
tp4619
(dp4620
g2626
I0
sg2627
I0
sg2628
I0
sg2629
I0
sg2630
I0
ss(g47
g11
g28
g25
tp4621
(dp4622
g2626
I0
sg2627
I0
sg2628
I0
sg2629
I0
sg2630
I0
ss(g16
g4
g21
g22
tp4623
(dp4624
g2626
I0
sg2627
I0
sg2628
I0
sg2629
I0
sg2630
I0
ss(g16
g4
g28
g37
tp4625
(dp4626
g2626
I0
sg2627
F14.159997165000004
sg2628
I0
sg2629
I0
sg2630
I0
ss(g47
g17
g12
g25
tp4627
(dp4628
g2626
I0
sg2627
I0
sg2628
I0
sg2629
I0
sg2630
I0
ss(g47
g4
g42
g102
tp4629
(dp4630
g2626
I0
sg2627
I0
sg2628
I0
sg2629
I0
sg2630
I0
ss(g47
g11
g21
g102
tp4631
(dp4632
g2626
I0
sg2627
I0
sg2628
I0
sg2629
I0
sg2630
I0
ss(g10
g4
g12
g22
tp4633
(dp4634
g2626
I0
sg2627
I0
sg2628
I0
sg2629
I0
sg2630
I0
ss(g10
g17
g42
g37
tp4635
(dp4636
g2626
I0
sg2627
F64.3827210584055
sg2628
I0
sg2629
I0
sg2630
I0
ss(g16
g4
g9
g48
tp4637
(dp4638
g2626
I0
sg2627
I0
sg2628
I0
sg2629
I0
sg2630
I0
ss(g3
g17
g28
g29
tp4639
(dp4640
g2626
I0
sg2627
I0
sg2628
I0
sg2629
I0
sg2630
I0
ss(g16
g11
g76
g69
tp4641
(dp4642
g2626
I0
sg2627
I0
sg2628
I0
sg2629
I0
sg2630
I0
ss(g3
g11
g28
g102
tp4643
(dp4644
g2626
I0
sg2627
I0
sg2628
I0
sg2629
I0
sg2630
I0
sss.